
/mnt4/ertos_ws_17_07_2015/Example05_heartbeat_plus_Timers_unequ_prio_delalyuntil/Debug/Example05_heartbeat_plus_Timers_unequ_prio_delalyuntil.axf:     file format elf32-littlearm
/mnt4/ertos_ws_17_07_2015/Example05_heartbeat_plus_Timers_unequ_prio_delalyuntil/Debug/Example05_heartbeat_plus_Timers_unequ_prio_delalyuntil.axf
architecture: arm, flags 0x00000112:
EXEC_P, HAS_SYMS, D_PAGED
start address 0x000000f5

Program Header:
    LOAD off    0x00008000 vaddr 0x00000000 paddr 0x00000000 align 2**15
         filesz 0x00004090 memsz 0x00004090 flags r-x
    LOAD off    0x00010000 vaddr 0x10000000 paddr 0x00004090 align 2**15
         filesz 0x00000018 memsz 0x00000018 flags rw-
    LOAD off    0x00010018 vaddr 0x10000018 paddr 0x10000018 align 2**15
         filesz 0x00000000 memsz 0x00002aa8 flags rw-
private flags = 5000002: [Version5 EABI] [has entry point]

Sections:
Idx Name          Size      VMA       LMA       File off  Algn
  0 .text         00004090  00000000  00000000  00008000  2**3
                  CONTENTS, ALLOC, LOAD, READONLY, CODE
  1 .data         00000018  10000000  00004090  00010000  2**2
                  CONTENTS, ALLOC, LOAD, DATA
  2 .bss          00002aa8  10000018  10000018  00010018  2**3
                  ALLOC
  3 .debug_info   00002a7a  00000000  00000000  00010018  2**0
                  CONTENTS, READONLY, DEBUGGING
  4 .debug_abbrev 00000b32  00000000  00000000  00012a92  2**0
                  CONTENTS, READONLY, DEBUGGING
  5 .debug_loc    000012b9  00000000  00000000  000135c4  2**0
                  CONTENTS, READONLY, DEBUGGING
  6 .debug_aranges 000001c0  00000000  00000000  0001487d  2**0
                  CONTENTS, READONLY, DEBUGGING
  7 .debug_ranges 00000148  00000000  00000000  00014a3d  2**0
                  CONTENTS, READONLY, DEBUGGING
  8 .debug_line   00002af9  00000000  00000000  00014b85  2**0
                  CONTENTS, READONLY, DEBUGGING
  9 .debug_macinfo 0004a537  00000000  00000000  0001767e  2**0
                  CONTENTS, READONLY, DEBUGGING
 10 .debug_str    00001296  00000000  00000000  00061bb5  2**0
                  CONTENTS, READONLY, DEBUGGING
 11 .comment      000000e0  00000000  00000000  00062e4b  2**0
                  CONTENTS, READONLY
 12 .ARM.attributes 00000031  00000000  00000000  00062f2b  2**0
                  CONTENTS, READONLY
 13 .debug_frame  00000760  00000000  00000000  00062f5c  2**2
                  CONTENTS, READONLY, DEBUGGING
SYMBOL TABLE:
00000000 l    d  .text	00000000 .text
10000000 l    d  .data	00000000 .data
10000018 l    d  .bss	00000000 .bss
00000000 l    d  .debug_info	00000000 .debug_info
00000000 l    d  .debug_abbrev	00000000 .debug_abbrev
00000000 l    d  .debug_loc	00000000 .debug_loc
00000000 l    d  .debug_aranges	00000000 .debug_aranges
00000000 l    d  .debug_ranges	00000000 .debug_ranges
00000000 l    d  .debug_line	00000000 .debug_line
00000000 l    d  .debug_macinfo	00000000 .debug_macinfo
00000000 l    d  .debug_str	00000000 .debug_str
00000000 l    d  .comment	00000000 .comment
00000000 l    d  .ARM.attributes	00000000 .ARM.attributes
00000000 l    d  .debug_frame	00000000 .debug_frame
00000000 l    df *ABS*	00000000 cr_startup_lpc17.c
0000013e l     F .text	00000000 zero_loop
00000000 l    df *ABS*	00000000 main.c
00000328 l     F .text	0000002c prvToggleLED
00000000 l    df *ABS*	00000000 system_LPC17xx.c
00000000 l    df *ABS*	00000000 port.c
00000668 l       .text	00000000 pxCurrentTCBConst2
00000750 l       .text	00000000 pxCurrentTCBConst
10000010 l     O .data	00000004 uxCriticalNesting
00000000 l    df *ABS*	00000000 basic_io.c
10000020 l     O .bss	00000032 cBuffer
00000000 l    df *ABS*	00000000 consoleprint.c
00000000 l    df *ABS*	00000000 tasks.c
00000f20 l     F .text	0000006c prvIdleTask
00003fe8 l     O .text	00000014 ucExpectedStackBytes.5810
10000054 l     O .bss	00000004 uxCurrentNumberOfTasks
1000005c l     O .bss	00000064 pxReadyTasksLists
100000c0 l     O .bss	00000014 xDelayedTaskList1
100000d4 l     O .bss	00000014 xDelayedTaskList2
100000e8 l     O .bss	00000014 xPendingReadyList
100000fc l     O .bss	00000014 xTasksWaitingTermination
10000110 l     O .bss	00000014 xSuspendedTaskList
10000124 l     O .bss	00000004 pxDelayedTaskList
10000128 l     O .bss	00000004 pxOverflowDelayedTaskList
1000012c l     O .bss	00000004 xSchedulerRunning
10000130 l     O .bss	00000004 uxTopUsedPriority
10000134 l     O .bss	00000004 uxTaskNumber
10000138 l     O .bss	00000004 uxTopReadyPriority
1000013c l     O .bss	00000004 uxTasksDeleted
10000140 l     O .bss	00000004 uxSchedulerSuspended
10000144 l     O .bss	00000004 xTickCount
10000148 l     O .bss	00000004 xNumOfOverflows
1000014c l     O .bss	00000004 uxMissedTicks
10000150 l     O .bss	00000004 xMissedYield
00000000 l    df *ABS*	00000000 heap_2.c
10000014 l     O .data	00000004 xFreeBytesRemaining
10000158 l     O .bss	00000008 xStart
10000160 l     O .bss	00000004 xHeapHasBeenInitialised.5416
10000168 l     O .bss	00002800 xHeap
10002968 l     O .bss	00000008 xEnd
00000000 l    df *ABS*	00000000 list.c
00000000 l    df *ABS*	00000000 _cr__main.c
00000000 l    df *ABS*	00000000 memset.c
00000000 l    df *ABS*	00000000 fpprintf.c
000016a0 l     F .text	0000001e lose_trailing_zeros
000016be l     F .text	00000054 fp_round
00001712 l     F .text	00000022 pr_dec.constprop.1
000017a8 l     F .text	00000904 fp_display
00000000 l    df *ABS*	00000000 initio.c
00000000 l    df *ABS*	00000000 memcmp.c
00000000 l    df *ABS*	00000000 printf.c
00000000 l    df *ABS*	00000000 setvbuf.c
00000000 l    df *ABS*	00000000 strcpy.c
00000000 l    df *ABS*	00000000 strlen.c
00000000 l    df *ABS*	00000000 strncpy.c
00000000 l    df *ABS*	00000000 _deferredlazyseek.c
00000000 l    df *ABS*	00000000 _fdopen.c
00000000 l    df *ABS*	00000000 _fflush.c
00000000 l    df *ABS*	00000000 _frexpl.c
00000000 l    df *ABS*	00000000 _ldexpl.c
00000000 l    df *ABS*	00000000 _writebuf.c
00000000 l    df *ABS*	00000000 alloc.c
00000000 l    df *ABS*	00000000 fclose.c
00000000 l    df *ABS*	00000000 fflush.c
00000000 l    df *ABS*	00000000 fseek.c
00000000 l    df *ABS*	00000000 ftell.c
00000000 l    df *ABS*	00000000 remove.c
00000000 l    df *ABS*	00000000 _do_fflush.c
00000000 l    df *ABS*	00000000 double.c
00003eb8 l       .text	00000000 memset1
00003eb0 l       .text	00000000 memset4
00003ec2 l       .text	00000000 memset1_ret
00003ebc l       .text	00000000 memset1a
00000000 l    df *ABS*	00000000 _cr_sbrk.c
00000000 l    df *ABS*	00000000 _cr_check_heap.c
00000000 l    df *ABS*	00000000 _hugeval.c
00003dec g     F .text	00000058 __aeabi_dcmple
00002f20 g     F .text	00000044 strcpy
00001688 g     F .text	00000014 __main
0000018c  w    F .text	00000006 TIMER2_IRQHandler
00000184  w    F .text	00000006 DebugMon_Handler
0000018c  w    F .text	00000006 RIT_IRQHandler
00003004 g     F .text	00000044 _deferredlazyseek
000015c8 g     F .text	0000000c xPortGetFreeHeapSize
00000380 g     F .text	00000080 vSetupTimerForRunTimeStats
000000cc g       .text	00000000 __section_table_start
00003ec4 g     F .text	00000000 __exit
000006fc g     F .text	0000001c vPortExitCritical
00000a70 g     F .text	0000001e uxTaskPriorityGet
0000018c  w    F .text	00000006 I2C0_IRQHandler
00003f0c g     F .text	00000000 __sys_tmpnam
00000164  w    F .text	00000006 HardFault_Handler
00000000 g       *ABS*	00000000 __vectors_start__
0000018c  w    F .text	00000006 USBActivity_IRQHandler
0000018c  w    F .text	00000006 PWM1_IRQHandler
0000015c  w    F .text	00000006 NMI_Handler
00004090 g       *ABS*	00000000 __exidx_end
000000e4 g       .text	00000000 __data_section_table_end
0000018c  w    F .text	00000006 I2C1_IRQHandler
0000018c  w    F .text	00000006 EINT2_IRQHandler
0000018c  w    F .text	00000006 UART1_IRQHandler
00003048 g     F .text	0000014e __flsbuf
0000167c g     F .text	00000000 __write
10000058 g     O .bss	00000004 pxCurrentTCB
0000018c  w    F .text	00000006 EINT3_IRQHandler
0000018c  w    F .text	00000006 CANActivity_IRQHandler
10000000 g     O .data	00000004 pcTextForTask1
10002970 g     O .bss	00000004 errno
00004090 g       *ABS*	00000000 _etext
000032bc g     F .text	00000050 _ldexpl
10002974 g     O .bss	00000004 _extra
000007d8 g     F .text	00000016 consoleprint
00080000 g       *ABS*	00000000 __top_MFlash512
00000a90 g     F .text	000000b4 vTaskPrioritySet
00001688  w    F .text	00000014 __CR_SEMIHOST
0000325a g     F .text	00000060 _frexpl
0000018c  w    F .text	00000006 TIMER3_IRQHandler
0000018c  w    F .text	00000006 UART0_IRQHandler
0000067c g     F .text	00000050 xPortStartScheduler
00000cbc g     F .text	00000020 vTaskEndScheduler
00001208 g     F .text	0000006c vTaskPlaceOnEventList
000007f0 g     F .text	00000200 xTaskGenericCreate
00002ed8 g     F .text	00000048 setvbuf
00000b44 g     F .text	0000002c xTaskIsTaskSuspended
00000284 g     F .text	00000058 vTaskFunction
00000754 g     F .text	0000002c xPortSysTickHandler
10002ac0 g       .debug_info	00000000 _noinit
00001584 g     F .text	00000044 vPortFree
00003390 g     F .text	000000bc malloc
00003668 g     F .text	00000014 remove
0000017c  w    F .text	00000006 UsageFault_Handler
00000718 g     F .text	0000003c xPortPendSVHandler
000015f8 g     F .text	0000001e vListInsertEnd
00001654 g     F .text	00000028 vListRemove
20084000 g       *ABS*	00000000 __top_RamAHB32
00003edc g     F .text	00000000 __sys_flen
0000018c  w    F .text	00000006 IntDefaultHandler
00000bec g     F .text	0000007c xTaskResumeFromISR
000015f0 g     F .text	00000008 vListInitialiseItem
00000000  w      *UND*	00000000 _pvHeapLimit
0000018c  w    F .text	00000006 PLL0_IRQHandler
00003d90 g     F .text	0000005c __aeabi_dcmplt
0000018c  w    F .text	00000006 CAN_IRQHandler
000034e4 g     F .text	00000034 fflush
0000018c  w    F .text	00000006 PLL1_IRQHandler
000037f8 g     F .text	00000168 __aeabi_ddiv
10000008 g     O .data	00000004 pcTextForTask3
0000018c  w    F .text	00000006 SSP0_IRQHandler
00004090 g       *ABS*	00000000 __exidx_start
000036c0 g     F .text	00000138 __aeabi_dmul
1000001c g     O .bss	00000004 ultimestamp3
00003196 g     F .text	0000006c _fdopen
00003ea0 g     F .text	00000024 __aeabi_lowlevel_memset
00003f18 g     F .text	00000040 _sbrk
00001498 g     F .text	000000ec pvPortMalloc
0000018c  w    F .text	00000006 I2S_IRQHandler
000006cc g     F .text	00000002 vPortEndScheduler
0000018c  w    F .text	00000006 I2C2_IRQHandler
000015d8 g     F .text	00000018 vListInitialise
000000cc g       .text	00000000 __data_section_table
00000cf4 g     F .text	0000001a xTaskGetTickCount
0000018c  w    F .text	00000006 RTC_IRQHandler
10002ac0 g       .bss	00000000 _ebss
0000018c  w    F .text	00000006 TIMER0_IRQHandler
00002184 g     F .text	00000d52 __vfprintf
0000018c  w    F .text	00000006 SPI_IRQHandler
1000000c g     O .data	00000004 ultimestamp1
10008000 g       *ABS*	00000000 __top_RamLoc32
00001274 g     F .text	0000008c xTaskRemoveFromEventList
00000354 g     F .text	00000006 vApplicationMallocFailedHook
00003b54 g     F .text	00000154 __aeabi_dadd
00000374 g     F .text	0000000a vApplicationTickHook
0000018c  w    F .text	00000006 EINT1_IRQHandler
0000018c  w    F .text	00000006 TIMER1_IRQHandler
000009f0 g     F .text	0000007e vTaskDelete
0000018c  w    F .text	00000006 UART2_IRQHandler
00003518 g     F .text	00000104 fseek
000002dc g     F .text	00000024 vTaskFunction1
00000784 g     F .text	00000024 vPrintString
00003202 g     F .text	00000058 _fflush
00001318 g     F .text	00000080 xTaskCheckForTimeOut
00003ce8 g     F .text	0000005c __bhs_ui2d
00003e44 g     F .text	0000005a __aeabi_dcmpge
10000018 g       .bss	00000000 _bss
00003960 g     F .text	000001f4 __aeabi_dsub
00000cdc g     F .text	00000016 vTaskSuspendAll
00000d10 g     F .text	0000000e xTaskGetTickCountFromISR
00001444 g     F .text	00000054 vTaskPriorityDisinherit
0000018c  w    F .text	00000006 ADC_IRQHandler
10002ac0 g       .debug_info	00000000 _end_noinit
000013b8 g     F .text	0000008c vTaskPriorityInherit
10008000 g       *ABS*	00000000 _vStackTop
00002fb0 g     F .text	00000054 strncpy
00000b70 g     F .text	0000007a vTaskResume
00001080 g     F .text	000000fa vTaskSwitchContext
0000018c  w    F .text	00000006 SSP1_IRQHandler
000000f4 g       .text	00000000 __bss_section_table_end
00003f58 g     F .text	0000002c __check_heap_overflow
00003d44 g     F .text	00000010 __aeabi_i2d
0000214c g     F .text	00000038 memcmp
0000018c  w    F .text	00000006 USB_IRQHandler
0000035c g     F .text	0000000c vApplicationStackOverflowHook
0000117c g     F .text	0000008c vTaskSuspend
00000d20 g     F .text	0000000c uxTaskGetNumberOfTasks
0000018c  w    F .text	00000006 BOD_IRQHandler
00000d2c g     F .text	000000e2 vTaskIncrementTick
00000300 g     F .text	00000028 vTaskHeartBeat
0000167c g     F .text	00000000 __sys_write
0000169c g     F .text	00000004 memset
0000016c  w    F .text	00000006 MemManage_Handler
00000194 g     F .text	000000ee main
0000367c g     F .text	00000042 _do_fflush
0000361c g     F .text	0000004c ftell
0000018c  w    F .text	00000006 WDT_IRQHandler
00001618 g     F .text	0000003c vListInsert
0000066c g     F .text	00000010 vPortStartFirstTask
00003478 g     F .text	0000006c fclose
0000064c g     F .text	00000020 vPortSVCHandler
00000fe4 g     F .text	0000009c vTaskDelayUntil
00003f00 g     F .text	00000000 __sys_seek
000013ac g     F .text	0000000c xTaskGetCurrentTaskHandle
00000400 g     F .text	0000022c SystemInit
0000018c  w    F .text	00000006 QEI_IRQHandler
000000e4 g       .text	00000000 __bss_section_table
00004088 g     O .text	00000008 __huge_vall
00000e10 g     F .text	00000110 xTaskResumeAll
00003ed0 g     F .text	00000000 __sys_close
00001734 g     F .text	00000070 sprintf
00000c68 g     F .text	00000054 vTaskStartScheduler
0000018c  w    F .text	00000006 EINT0_IRQHandler
10000000 g       .debug_info	00000000 _end_uninit_RESERVED
0000330c g     F .text	00000084 _Cwritebuf
000006d0 g     F .text	00000010 vPortYieldFromISR
10000000 g       .data	00000000 _data
00001398 g     F .text	00000012 vTaskMissedYield
10002ac0 g       *ABS*	00000000 _pvHeapStart
10000018 g     O .bss	00000004 ultimestamp2
000000f4 g       .text	00000000 __section_table_end
10000004 g     O .data	00000004 pcTextForTask2
00003ef4 g     F .text	00000000 __sys_remove
00003d54 g     F .text	0000003a __aeabi_dcmpeq
10000018 g       .data	00000000 _edata
000015d4 g     F .text	00000002 vPortInitialiseBlocks
10002ab8 g     O .bss	00000004 __heaps
00003ec4 g     F .text	00000000 __sys_appexit
00000000 g     O .text	000000cc g_pfnVectors
000000f4 g     F .text	0000005e ResetISR
00003ca8 g     F .text	00000040 __aeabi_d2iz
10002abc g     O .bss	00000004 __end_of_heap
0000018c  w    F .text	00000006 DMA_IRQHandler
00000f8c g     F .text	00000056 vTaskDelay
00003458 g     F .text	00000020 _Csys_alloc
00000174  w    F .text	00000006 BusFault_Handler
00002f64 g     F .text	0000004c strlen
0000062c g     F .text	0000001e pxPortInitialiseStack
0000018c  w    F .text	00000006 UART3_IRQHandler
0000018c  w    F .text	00000006 MCPWM_IRQHandler
00001300 g     F .text	00000016 vTaskSetTimeOutState
000006e0 g     F .text	0000001a vPortEnterCritical
000020b0 g     F .text	0000009c _initio
10002978 g     O .bss	00000140 __Ciob
0000018c  w    F .text	00000006 ENET_IRQHandler
00003ee8 g     F .text	00000000 __sys_istty
000007a8 g     F .text	00000030 vPrintStringAndNumber
0000344c g     F .text	0000000c free
00000368 g     F .text	0000000a vApplicationIdleHook



Disassembly of section .text:

00000000 <g_pfnVectors>:
       0:	00 80 00 10 f5 00 00 00 5d 01 00 00 65 01 00 00     ........]...e...
      10:	6d 01 00 00 75 01 00 00 7d 01 00 00 00 00 00 00     m...u...}.......
	...
      2c:	4d 06 00 00 85 01 00 00 00 00 00 00 19 07 00 00     M...............
      3c:	55 07 00 00 8d 01 00 00 8d 01 00 00 8d 01 00 00     U...............
      4c:	8d 01 00 00 8d 01 00 00 8d 01 00 00 8d 01 00 00     ................
      5c:	8d 01 00 00 8d 01 00 00 8d 01 00 00 8d 01 00 00     ................
      6c:	8d 01 00 00 8d 01 00 00 8d 01 00 00 8d 01 00 00     ................
      7c:	8d 01 00 00 8d 01 00 00 8d 01 00 00 8d 01 00 00     ................
      8c:	8d 01 00 00 8d 01 00 00 8d 01 00 00 8d 01 00 00     ................
      9c:	8d 01 00 00 8d 01 00 00 8d 01 00 00 8d 01 00 00     ................
      ac:	8d 01 00 00 8d 01 00 00 8d 01 00 00 8d 01 00 00     ................
      bc:	8d 01 00 00 8d 01 00 00 8d 01 00 00 8d 01 00 00     ................

000000cc <__data_section_table>:
      cc:	00004090 	.word	0x00004090
      d0:	10000000 	.word	0x10000000
      d4:	00000018 	.word	0x00000018
      d8:	00004090 	.word	0x00004090
      dc:	2007c000 	.word	0x2007c000
      e0:	00000000 	.word	0x00000000

000000e4 <__bss_section_table>:
      e4:	10000018 	.word	0x10000018
      e8:	00002aa8 	.word	0x00002aa8
      ec:	2007c000 	.word	0x2007c000
      f0:	00000000 	.word	0x00000000

000000f4 <ResetISR>:
      f4:	b580      	push	{r7, lr}
      f6:	b082      	sub	sp, #8
      f8:	af00      	add	r7, sp, #0
      fa:	f244 0390 	movw	r3, #16528	; 0x4090
      fe:	f2c0 0300 	movt	r3, #0
     102:	607b      	str	r3, [r7, #4]
     104:	f240 0300 	movw	r3, #0
     108:	f2c1 0300 	movt	r3, #4096	; 0x1000
     10c:	603b      	str	r3, [r7, #0]
     10e:	e00b      	b.n	128 <ResetISR+0x34>
     110:	687b      	ldr	r3, [r7, #4]
     112:	681a      	ldr	r2, [r3, #0]
     114:	683b      	ldr	r3, [r7, #0]
     116:	601a      	str	r2, [r3, #0]
     118:	683b      	ldr	r3, [r7, #0]
     11a:	f103 0304 	add.w	r3, r3, #4
     11e:	603b      	str	r3, [r7, #0]
     120:	687b      	ldr	r3, [r7, #4]
     122:	f103 0304 	add.w	r3, r3, #4
     126:	607b      	str	r3, [r7, #4]
     128:	683a      	ldr	r2, [r7, #0]
     12a:	f240 0318 	movw	r3, #24
     12e:	f2c1 0300 	movt	r3, #4096	; 0x1000
     132:	429a      	cmp	r2, r3
     134:	d3ec      	bcc.n	110 <ResetISR+0x1c>
     136:	4807      	ldr	r0, [pc, #28]	; (154 <zero_loop+0x16>)
     138:	4907      	ldr	r1, [pc, #28]	; (158 <zero_loop+0x1a>)
     13a:	f04f 0200 	mov.w	r2, #0

0000013e <zero_loop>:
     13e:	4288      	cmp	r0, r1
     140:	bfb8      	it	lt
     142:	f840 2b04 	strlt.w	r2, [r0], #4
     146:	dbfa      	blt.n	13e <zero_loop>
     148:	f000 f95a 	bl	400 <SystemInit>
     14c:	f001 fa9c 	bl	1688 <__main>
     150:	e7fe      	b.n	150 <zero_loop+0x12>
     152:	0000      	.short	0x0000
     154:	10000018 	.word	0x10000018
     158:	10002ac0 	.word	0x10002ac0

0000015c <NMI_Handler>:
     15c:	b480      	push	{r7}
     15e:	af00      	add	r7, sp, #0
     160:	e7fe      	b.n	160 <NMI_Handler+0x4>
     162:	bf00      	nop

00000164 <HardFault_Handler>:
     164:	b480      	push	{r7}
     166:	af00      	add	r7, sp, #0
     168:	e7fe      	b.n	168 <HardFault_Handler+0x4>
     16a:	bf00      	nop

0000016c <MemManage_Handler>:
     16c:	b480      	push	{r7}
     16e:	af00      	add	r7, sp, #0
     170:	e7fe      	b.n	170 <MemManage_Handler+0x4>
     172:	bf00      	nop

00000174 <BusFault_Handler>:
     174:	b480      	push	{r7}
     176:	af00      	add	r7, sp, #0
     178:	e7fe      	b.n	178 <BusFault_Handler+0x4>
     17a:	bf00      	nop

0000017c <UsageFault_Handler>:
     17c:	b480      	push	{r7}
     17e:	af00      	add	r7, sp, #0
     180:	e7fe      	b.n	180 <UsageFault_Handler+0x4>
     182:	bf00      	nop

00000184 <DebugMon_Handler>:
     184:	b480      	push	{r7}
     186:	af00      	add	r7, sp, #0
     188:	e7fe      	b.n	188 <DebugMon_Handler+0x4>
     18a:	bf00      	nop

0000018c <ADC_IRQHandler>:
     18c:	b480      	push	{r7}
     18e:	af00      	add	r7, sp, #0
     190:	e7fe      	b.n	190 <ADC_IRQHandler+0x4>
     192:	bf00      	nop

00000194 <main>:
     194:	b580      	push	{r7, lr}
     196:	b084      	sub	sp, #16
     198:	af04      	add	r7, sp, #16
     19a:	f000 f8f1 	bl	380 <vSetupTimerForRunTimeStats>
     19e:	f44f 4340 	mov.w	r3, #49152	; 0xc000
     1a2:	f2c4 0302 	movt	r3, #16386	; 0x4002
     1a6:	f44f 4240 	mov.w	r2, #49152	; 0xc000
     1aa:	f2c4 0202 	movt	r2, #16386	; 0x4002
     1ae:	6852      	ldr	r2, [r2, #4]
     1b0:	f422 5240 	bic.w	r2, r2, #12288	; 0x3000
     1b4:	605a      	str	r2, [r3, #4]
     1b6:	f44f 4340 	mov.w	r3, #49152	; 0xc000
     1ba:	f2c2 0309 	movt	r3, #8201	; 0x2009
     1be:	f44f 4240 	mov.w	r2, #49152	; 0xc000
     1c2:	f2c2 0209 	movt	r2, #8201	; 0x2009
     1c6:	6812      	ldr	r2, [r2, #0]
     1c8:	f442 0280 	orr.w	r2, r2, #4194304	; 0x400000
     1cc:	601a      	str	r2, [r3, #0]
     1ce:	f240 0300 	movw	r3, #0
     1d2:	f2c1 0300 	movt	r3, #4096	; 0x1000
     1d6:	681b      	ldr	r3, [r3, #0]
     1d8:	f04f 0201 	mov.w	r2, #1
     1dc:	9200      	str	r2, [sp, #0]
     1de:	f04f 0200 	mov.w	r2, #0
     1e2:	9201      	str	r2, [sp, #4]
     1e4:	f04f 0200 	mov.w	r2, #0
     1e8:	9202      	str	r2, [sp, #8]
     1ea:	f04f 0200 	mov.w	r2, #0
     1ee:	9203      	str	r2, [sp, #12]
     1f0:	f240 2085 	movw	r0, #645	; 0x285
     1f4:	f2c0 0000 	movt	r0, #0
     1f8:	f643 71c4 	movw	r1, #16324	; 0x3fc4
     1fc:	f2c0 0100 	movt	r1, #0
     200:	f04f 02f0 	mov.w	r2, #240	; 0xf0
     204:	f000 faf4 	bl	7f0 <xTaskGenericCreate>
     208:	f240 0304 	movw	r3, #4
     20c:	f2c1 0300 	movt	r3, #4096	; 0x1000
     210:	681b      	ldr	r3, [r3, #0]
     212:	f04f 0202 	mov.w	r2, #2
     216:	9200      	str	r2, [sp, #0]
     218:	f04f 0200 	mov.w	r2, #0
     21c:	9201      	str	r2, [sp, #4]
     21e:	f04f 0200 	mov.w	r2, #0
     222:	9202      	str	r2, [sp, #8]
     224:	f04f 0200 	mov.w	r2, #0
     228:	9203      	str	r2, [sp, #12]
     22a:	f240 20dd 	movw	r0, #733	; 0x2dd
     22e:	f2c0 0000 	movt	r0, #0
     232:	f643 71cc 	movw	r1, #16332	; 0x3fcc
     236:	f2c0 0100 	movt	r1, #0
     23a:	f04f 02f0 	mov.w	r2, #240	; 0xf0
     23e:	f000 fad7 	bl	7f0 <xTaskGenericCreate>
     242:	f240 0308 	movw	r3, #8
     246:	f2c1 0300 	movt	r3, #4096	; 0x1000
     24a:	681b      	ldr	r3, [r3, #0]
     24c:	f04f 0203 	mov.w	r2, #3
     250:	9200      	str	r2, [sp, #0]
     252:	f04f 0200 	mov.w	r2, #0
     256:	9201      	str	r2, [sp, #4]
     258:	f04f 0200 	mov.w	r2, #0
     25c:	9202      	str	r2, [sp, #8]
     25e:	f04f 0200 	mov.w	r2, #0
     262:	9203      	str	r2, [sp, #12]
     264:	f240 3001 	movw	r0, #769	; 0x301
     268:	f2c0 0000 	movt	r0, #0
     26c:	f643 71d4 	movw	r1, #16340	; 0x3fd4
     270:	f2c0 0100 	movt	r1, #0
     274:	f04f 02f0 	mov.w	r2, #240	; 0xf0
     278:	f000 faba 	bl	7f0 <xTaskGenericCreate>
     27c:	f000 fcf4 	bl	c68 <vTaskStartScheduler>
     280:	e7fe      	b.n	280 <main+0xec>
     282:	bf00      	nop

00000284 <vTaskFunction>:
     284:	b580      	push	{r7, lr}
     286:	b084      	sub	sp, #16
     288:	af00      	add	r7, sp, #0
     28a:	6078      	str	r0, [r7, #4]
     28c:	687b      	ldr	r3, [r7, #4]
     28e:	60fb      	str	r3, [r7, #12]
     290:	f000 fd30 	bl	cf4 <xTaskGetTickCount>
     294:	4603      	mov	r3, r0
     296:	60bb      	str	r3, [r7, #8]
     298:	f107 0308 	add.w	r3, r7, #8
     29c:	4618      	mov	r0, r3
     29e:	f04f 01c8 	mov.w	r1, #200	; 0xc8
     2a2:	f000 fe9f 	bl	fe4 <vTaskDelayUntil>
     2a6:	f24e 0310 	movw	r3, #57360	; 0xe010
     2aa:	f2ce 0300 	movt	r3, #57344	; 0xe000
     2ae:	689b      	ldr	r3, [r3, #8]
     2b0:	461a      	mov	r2, r3
     2b2:	f240 031c 	movw	r3, #28
     2b6:	f2c1 0300 	movt	r3, #4096	; 0x1000
     2ba:	601a      	str	r2, [r3, #0]
     2bc:	f240 030c 	movw	r3, #12
     2c0:	f2c1 0300 	movt	r3, #4096	; 0x1000
     2c4:	681a      	ldr	r2, [r3, #0]
     2c6:	f240 0318 	movw	r3, #24
     2ca:	f2c1 0300 	movt	r3, #4096	; 0x1000
     2ce:	681b      	ldr	r3, [r3, #0]
     2d0:	1ad3      	subs	r3, r2, r3
     2d2:	68f8      	ldr	r0, [r7, #12]
     2d4:	4619      	mov	r1, r3
     2d6:	f000 fa67 	bl	7a8 <vPrintStringAndNumber>
     2da:	e7dd      	b.n	298 <vTaskFunction+0x14>

000002dc <vTaskFunction1>:
     2dc:	b580      	push	{r7, lr}
     2de:	b084      	sub	sp, #16
     2e0:	af00      	add	r7, sp, #0
     2e2:	6078      	str	r0, [r7, #4]
     2e4:	687b      	ldr	r3, [r7, #4]
     2e6:	60fb      	str	r3, [r7, #12]
     2e8:	f000 fd04 	bl	cf4 <xTaskGetTickCount>
     2ec:	4603      	mov	r3, r0
     2ee:	60bb      	str	r3, [r7, #8]
     2f0:	f107 0308 	add.w	r3, r7, #8
     2f4:	4618      	mov	r0, r3
     2f6:	f04f 0146 	mov.w	r1, #70	; 0x46
     2fa:	f000 fe73 	bl	fe4 <vTaskDelayUntil>
     2fe:	e7f7      	b.n	2f0 <vTaskFunction1+0x14>

00000300 <vTaskHeartBeat>:
     300:	b580      	push	{r7, lr}
     302:	b084      	sub	sp, #16
     304:	af00      	add	r7, sp, #0
     306:	6078      	str	r0, [r7, #4]
     308:	687b      	ldr	r3, [r7, #4]
     30a:	60fb      	str	r3, [r7, #12]
     30c:	f000 fcf2 	bl	cf4 <xTaskGetTickCount>
     310:	4603      	mov	r3, r0
     312:	60bb      	str	r3, [r7, #8]
     314:	f107 0308 	add.w	r3, r7, #8
     318:	4618      	mov	r0, r3
     31a:	f04f 01fa 	mov.w	r1, #250	; 0xfa
     31e:	f000 fe61 	bl	fe4 <vTaskDelayUntil>
     322:	f000 f801 	bl	328 <prvToggleLED>
     326:	e7f5      	b.n	314 <vTaskHeartBeat+0x14>

00000328 <prvToggleLED>:
     328:	b480      	push	{r7}
     32a:	b083      	sub	sp, #12
     32c:	af00      	add	r7, sp, #0
     32e:	f44f 4340 	mov.w	r3, #49152	; 0xc000
     332:	f2c2 0309 	movt	r3, #8201	; 0x2009
     336:	695b      	ldr	r3, [r3, #20]
     338:	607b      	str	r3, [r7, #4]
     33a:	f44f 4340 	mov.w	r3, #49152	; 0xc000
     33e:	f2c2 0309 	movt	r3, #8201	; 0x2009
     342:	687a      	ldr	r2, [r7, #4]
     344:	f482 0280 	eor.w	r2, r2, #4194304	; 0x400000
     348:	615a      	str	r2, [r3, #20]
     34a:	f107 070c 	add.w	r7, r7, #12
     34e:	46bd      	mov	sp, r7
     350:	bc80      	pop	{r7}
     352:	4770      	bx	lr

00000354 <vApplicationMallocFailedHook>:
     354:	b480      	push	{r7}
     356:	af00      	add	r7, sp, #0
     358:	e7fe      	b.n	358 <vApplicationMallocFailedHook+0x4>
     35a:	bf00      	nop

0000035c <vApplicationStackOverflowHook>:
     35c:	b480      	push	{r7}
     35e:	b083      	sub	sp, #12
     360:	af00      	add	r7, sp, #0
     362:	6078      	str	r0, [r7, #4]
     364:	6039      	str	r1, [r7, #0]
     366:	e7fe      	b.n	366 <vApplicationStackOverflowHook+0xa>

00000368 <vApplicationIdleHook>:
     368:	b480      	push	{r7}
     36a:	af00      	add	r7, sp, #0
     36c:	46bd      	mov	sp, r7
     36e:	bc80      	pop	{r7}
     370:	4770      	bx	lr
     372:	bf00      	nop

00000374 <vApplicationTickHook>:
     374:	b480      	push	{r7}
     376:	af00      	add	r7, sp, #0
     378:	46bd      	mov	sp, r7
     37a:	bc80      	pop	{r7}
     37c:	4770      	bx	lr
     37e:	bf00      	nop

00000380 <vSetupTimerForRunTimeStats>:
     380:	b480      	push	{r7}
     382:	b085      	sub	sp, #20
     384:	af00      	add	r7, sp, #0
     386:	f04f 0302 	mov.w	r3, #2
     38a:	60fb      	str	r3, [r7, #12]
     38c:	f04f 0300 	mov.w	r3, #0
     390:	60bb      	str	r3, [r7, #8]
     392:	f04f 0301 	mov.w	r3, #1
     396:	607b      	str	r3, [r7, #4]
     398:	f44f 4340 	mov.w	r3, #49152	; 0xc000
     39c:	f2c4 030f 	movt	r3, #16399	; 0x400f
     3a0:	f44f 4240 	mov.w	r2, #49152	; 0xc000
     3a4:	f2c4 020f 	movt	r2, #16399	; 0x400f
     3a8:	f8d2 20c4 	ldr.w	r2, [r2, #196]	; 0xc4
     3ac:	f042 0202 	orr.w	r2, r2, #2
     3b0:	f8c3 20c4 	str.w	r2, [r3, #196]	; 0xc4
     3b4:	f44f 4340 	mov.w	r3, #49152	; 0xc000
     3b8:	f2c4 030f 	movt	r3, #16399	; 0x400f
     3bc:	f44f 4240 	mov.w	r2, #49152	; 0xc000
     3c0:	f2c4 020f 	movt	r2, #16399	; 0x400f
     3c4:	f8d2 21a8 	ldr.w	r2, [r2, #424]	; 0x1a8
     3c8:	f022 020c 	bic.w	r2, r2, #12
     3cc:	f042 0204 	orr.w	r2, r2, #4
     3d0:	f8c3 21a8 	str.w	r2, [r3, #424]	; 0x1a8
     3d4:	f04f 2340 	mov.w	r3, #1073758208	; 0x40004000
     3d8:	68fa      	ldr	r2, [r7, #12]
     3da:	605a      	str	r2, [r3, #4]
     3dc:	f04f 2340 	mov.w	r3, #1073758208	; 0x40004000
     3e0:	68ba      	ldr	r2, [r7, #8]
     3e2:	671a      	str	r2, [r3, #112]	; 0x70
     3e4:	f04f 2340 	mov.w	r3, #1073758208	; 0x40004000
     3e8:	f242 720f 	movw	r2, #9999	; 0x270f
     3ec:	60da      	str	r2, [r3, #12]
     3ee:	f04f 2340 	mov.w	r3, #1073758208	; 0x40004000
     3f2:	687a      	ldr	r2, [r7, #4]
     3f4:	605a      	str	r2, [r3, #4]
     3f6:	f107 0714 	add.w	r7, r7, #20
     3fa:	46bd      	mov	sp, r7
     3fc:	bc80      	pop	{r7}
     3fe:	4770      	bx	lr

00000400 <SystemInit>:
     400:	b480      	push	{r7}
     402:	af00      	add	r7, sp, #0
     404:	f44f 4340 	mov.w	r3, #49152	; 0xc000
     408:	f2c4 030f 	movt	r3, #16399	; 0x400f
     40c:	f04f 0220 	mov.w	r2, #32
     410:	f8c3 21a0 	str.w	r2, [r3, #416]	; 0x1a0
     414:	bf00      	nop
     416:	f44f 4340 	mov.w	r3, #49152	; 0xc000
     41a:	f2c4 030f 	movt	r3, #16399	; 0x400f
     41e:	f8d3 31a0 	ldr.w	r3, [r3, #416]	; 0x1a0
     422:	f003 0340 	and.w	r3, r3, #64	; 0x40
     426:	2b00      	cmp	r3, #0
     428:	d0f5      	beq.n	416 <SystemInit+0x16>
     42a:	f44f 4340 	mov.w	r3, #49152	; 0xc000
     42e:	f2c4 030f 	movt	r3, #16399	; 0x400f
     432:	f04f 0203 	mov.w	r2, #3
     436:	f8c3 2104 	str.w	r2, [r3, #260]	; 0x104
     43a:	f44f 4340 	mov.w	r3, #49152	; 0xc000
     43e:	f2c4 030f 	movt	r3, #16399	; 0x400f
     442:	f04f 0200 	mov.w	r2, #0
     446:	f8c3 21a8 	str.w	r2, [r3, #424]	; 0x1a8
     44a:	f44f 4340 	mov.w	r3, #49152	; 0xc000
     44e:	f2c4 030f 	movt	r3, #16399	; 0x400f
     452:	f04f 0200 	mov.w	r2, #0
     456:	f8c3 21ac 	str.w	r2, [r3, #428]	; 0x1ac
     45a:	f44f 4340 	mov.w	r3, #49152	; 0xc000
     45e:	f2c4 030f 	movt	r3, #16399	; 0x400f
     462:	f04f 0201 	mov.w	r2, #1
     466:	f8c3 210c 	str.w	r2, [r3, #268]	; 0x10c
     46a:	f44f 4340 	mov.w	r3, #49152	; 0xc000
     46e:	f2c4 030f 	movt	r3, #16399	; 0x400f
     472:	f04f 0263 	mov.w	r2, #99	; 0x63
     476:	f2c0 0205 	movt	r2, #5
     47a:	f8c3 2084 	str.w	r2, [r3, #132]	; 0x84
     47e:	f44f 4340 	mov.w	r3, #49152	; 0xc000
     482:	f2c4 030f 	movt	r3, #16399	; 0x400f
     486:	f04f 02aa 	mov.w	r2, #170	; 0xaa
     48a:	f8c3 208c 	str.w	r2, [r3, #140]	; 0x8c
     48e:	f44f 4340 	mov.w	r3, #49152	; 0xc000
     492:	f2c4 030f 	movt	r3, #16399	; 0x400f
     496:	f04f 0255 	mov.w	r2, #85	; 0x55
     49a:	f8c3 208c 	str.w	r2, [r3, #140]	; 0x8c
     49e:	f44f 4340 	mov.w	r3, #49152	; 0xc000
     4a2:	f2c4 030f 	movt	r3, #16399	; 0x400f
     4a6:	f04f 0201 	mov.w	r2, #1
     4aa:	f8c3 2080 	str.w	r2, [r3, #128]	; 0x80
     4ae:	f44f 4340 	mov.w	r3, #49152	; 0xc000
     4b2:	f2c4 030f 	movt	r3, #16399	; 0x400f
     4b6:	f04f 02aa 	mov.w	r2, #170	; 0xaa
     4ba:	f8c3 208c 	str.w	r2, [r3, #140]	; 0x8c
     4be:	f44f 4340 	mov.w	r3, #49152	; 0xc000
     4c2:	f2c4 030f 	movt	r3, #16399	; 0x400f
     4c6:	f04f 0255 	mov.w	r2, #85	; 0x55
     4ca:	f8c3 208c 	str.w	r2, [r3, #140]	; 0x8c
     4ce:	bf00      	nop
     4d0:	f44f 4340 	mov.w	r3, #49152	; 0xc000
     4d4:	f2c4 030f 	movt	r3, #16399	; 0x400f
     4d8:	f8d3 3088 	ldr.w	r3, [r3, #136]	; 0x88
     4dc:	f003 6380 	and.w	r3, r3, #67108864	; 0x4000000
     4e0:	2b00      	cmp	r3, #0
     4e2:	d0f5      	beq.n	4d0 <SystemInit+0xd0>
     4e4:	f44f 4340 	mov.w	r3, #49152	; 0xc000
     4e8:	f2c4 030f 	movt	r3, #16399	; 0x400f
     4ec:	f04f 0203 	mov.w	r2, #3
     4f0:	f8c3 2080 	str.w	r2, [r3, #128]	; 0x80
     4f4:	f44f 4340 	mov.w	r3, #49152	; 0xc000
     4f8:	f2c4 030f 	movt	r3, #16399	; 0x400f
     4fc:	f04f 02aa 	mov.w	r2, #170	; 0xaa
     500:	f8c3 208c 	str.w	r2, [r3, #140]	; 0x8c
     504:	f44f 4340 	mov.w	r3, #49152	; 0xc000
     508:	f2c4 030f 	movt	r3, #16399	; 0x400f
     50c:	f04f 0255 	mov.w	r2, #85	; 0x55
     510:	f8c3 208c 	str.w	r2, [r3, #140]	; 0x8c
     514:	bf00      	nop
     516:	f44f 4340 	mov.w	r3, #49152	; 0xc000
     51a:	f2c4 030f 	movt	r3, #16399	; 0x400f
     51e:	f8d3 3088 	ldr.w	r3, [r3, #136]	; 0x88
     522:	f003 7340 	and.w	r3, r3, #50331648	; 0x3000000
     526:	2b00      	cmp	r3, #0
     528:	d0f5      	beq.n	516 <SystemInit+0x116>
     52a:	f44f 4340 	mov.w	r3, #49152	; 0xc000
     52e:	f2c4 030f 	movt	r3, #16399	; 0x400f
     532:	f04f 0223 	mov.w	r2, #35	; 0x23
     536:	f8c3 20a4 	str.w	r2, [r3, #164]	; 0xa4
     53a:	f44f 4340 	mov.w	r3, #49152	; 0xc000
     53e:	f2c4 030f 	movt	r3, #16399	; 0x400f
     542:	f04f 02aa 	mov.w	r2, #170	; 0xaa
     546:	f8c3 20ac 	str.w	r2, [r3, #172]	; 0xac
     54a:	f44f 4340 	mov.w	r3, #49152	; 0xc000
     54e:	f2c4 030f 	movt	r3, #16399	; 0x400f
     552:	f04f 0255 	mov.w	r2, #85	; 0x55
     556:	f8c3 20ac 	str.w	r2, [r3, #172]	; 0xac
     55a:	f44f 4340 	mov.w	r3, #49152	; 0xc000
     55e:	f2c4 030f 	movt	r3, #16399	; 0x400f
     562:	f04f 0201 	mov.w	r2, #1
     566:	f8c3 20a0 	str.w	r2, [r3, #160]	; 0xa0
     56a:	f44f 4340 	mov.w	r3, #49152	; 0xc000
     56e:	f2c4 030f 	movt	r3, #16399	; 0x400f
     572:	f04f 02aa 	mov.w	r2, #170	; 0xaa
     576:	f8c3 20ac 	str.w	r2, [r3, #172]	; 0xac
     57a:	f44f 4340 	mov.w	r3, #49152	; 0xc000
     57e:	f2c4 030f 	movt	r3, #16399	; 0x400f
     582:	f04f 0255 	mov.w	r2, #85	; 0x55
     586:	f8c3 20ac 	str.w	r2, [r3, #172]	; 0xac
     58a:	bf00      	nop
     58c:	f44f 4340 	mov.w	r3, #49152	; 0xc000
     590:	f2c4 030f 	movt	r3, #16399	; 0x400f
     594:	f8d3 30a8 	ldr.w	r3, [r3, #168]	; 0xa8
     598:	f403 6380 	and.w	r3, r3, #1024	; 0x400
     59c:	2b00      	cmp	r3, #0
     59e:	d0f5      	beq.n	58c <SystemInit+0x18c>
     5a0:	f44f 4340 	mov.w	r3, #49152	; 0xc000
     5a4:	f2c4 030f 	movt	r3, #16399	; 0x400f
     5a8:	f04f 0203 	mov.w	r2, #3
     5ac:	f8c3 20a0 	str.w	r2, [r3, #160]	; 0xa0
     5b0:	f44f 4340 	mov.w	r3, #49152	; 0xc000
     5b4:	f2c4 030f 	movt	r3, #16399	; 0x400f
     5b8:	f04f 02aa 	mov.w	r2, #170	; 0xaa
     5bc:	f8c3 20ac 	str.w	r2, [r3, #172]	; 0xac
     5c0:	f44f 4340 	mov.w	r3, #49152	; 0xc000
     5c4:	f2c4 030f 	movt	r3, #16399	; 0x400f
     5c8:	f04f 0255 	mov.w	r2, #85	; 0x55
     5cc:	f8c3 20ac 	str.w	r2, [r3, #172]	; 0xac
     5d0:	bf00      	nop
     5d2:	f44f 4340 	mov.w	r3, #49152	; 0xc000
     5d6:	f2c4 030f 	movt	r3, #16399	; 0x400f
     5da:	f8d3 30a8 	ldr.w	r3, [r3, #168]	; 0xa8
     5de:	f403 7340 	and.w	r3, r3, #768	; 0x300
     5e2:	2b00      	cmp	r3, #0
     5e4:	d0f5      	beq.n	5d2 <SystemInit+0x1d2>
     5e6:	f44f 4340 	mov.w	r3, #49152	; 0xc000
     5ea:	f2c4 030f 	movt	r3, #16399	; 0x400f
     5ee:	f248 72de 	movw	r2, #34782	; 0x87de
     5f2:	f2c0 4228 	movt	r2, #1064	; 0x428
     5f6:	f8c3 20c4 	str.w	r2, [r3, #196]	; 0xc4
     5fa:	f44f 4340 	mov.w	r3, #49152	; 0xc000
     5fe:	f2c4 030f 	movt	r3, #16399	; 0x400f
     602:	f04f 0200 	mov.w	r2, #0
     606:	f8c3 21c8 	str.w	r2, [r3, #456]	; 0x1c8
     60a:	f44f 4340 	mov.w	r3, #49152	; 0xc000
     60e:	f2c4 030f 	movt	r3, #16399	; 0x400f
     612:	f44f 4240 	mov.w	r2, #49152	; 0xc000
     616:	f2c4 020f 	movt	r2, #16399	; 0x400f
     61a:	6812      	ldr	r2, [r2, #0]
     61c:	f422 4270 	bic.w	r2, r2, #61440	; 0xf000
     620:	f442 4280 	orr.w	r2, r2, #16384	; 0x4000
     624:	601a      	str	r2, [r3, #0]
     626:	46bd      	mov	sp, r7
     628:	bc80      	pop	{r7}
     62a:	4770      	bx	lr

0000062c <pxPortInitialiseStack>:
     62c:	f04f 7380 	mov.w	r3, #16777216	; 0x1000000
     630:	f840 3c04 	str.w	r3, [r0, #-4]
     634:	f840 1c08 	str.w	r1, [r0, #-8]
     638:	f04f 0300 	mov.w	r3, #0
     63c:	f840 3c0c 	str.w	r3, [r0, #-12]
     640:	f840 2c20 	str.w	r2, [r0, #-32]
     644:	f1a0 0040 	sub.w	r0, r0, #64	; 0x40
     648:	4770      	bx	lr
     64a:	bf00      	nop

0000064c <vPortSVCHandler>:
     64c:	4b06      	ldr	r3, [pc, #24]	; (668 <pxCurrentTCBConst2>)
     64e:	6819      	ldr	r1, [r3, #0]
     650:	6808      	ldr	r0, [r1, #0]
     652:	e8b0 0ff0 	ldmia.w	r0!, {r4, r5, r6, r7, r8, r9, sl, fp}
     656:	f380 8809 	msr	PSP, r0
     65a:	f04f 0000 	mov.w	r0, #0
     65e:	f380 8811 	msr	BASEPRI, r0
     662:	f04e 0e0d 	orr.w	lr, lr, #13
     666:	4770      	bx	lr

00000668 <pxCurrentTCBConst2>:
     668:	10000058 	.word	0x10000058

0000066c <vPortStartFirstTask>:
     66c:	4844      	ldr	r0, [pc, #272]	; (780 <xPortSysTickHandler+0x2c>)
     66e:	6800      	ldr	r0, [r0, #0]
     670:	6800      	ldr	r0, [r0, #0]
     672:	f380 8808 	msr	MSP, r0
     676:	b662      	cpsie	i
     678:	df00      	svc	0
     67a:	bf00      	nop

0000067c <xPortStartScheduler>:
     67c:	b510      	push	{r4, lr}
     67e:	f64e 5320 	movw	r3, #60704	; 0xed20
     682:	f2ce 0300 	movt	r3, #57344	; 0xe000
     686:	681a      	ldr	r2, [r3, #0]
     688:	f442 0278 	orr.w	r2, r2, #16252928	; 0xf80000
     68c:	601a      	str	r2, [r3, #0]
     68e:	681a      	ldr	r2, [r3, #0]
     690:	f042 4278 	orr.w	r2, r2, #4160749568	; 0xf8000000
     694:	601a      	str	r2, [r3, #0]
     696:	f24e 0314 	movw	r3, #57364	; 0xe014
     69a:	f2ce 0300 	movt	r3, #57344	; 0xe000
     69e:	f248 629f 	movw	r2, #34463	; 0x869f
     6a2:	f2c0 0201 	movt	r2, #1
     6a6:	601a      	str	r2, [r3, #0]
     6a8:	f24e 0310 	movw	r3, #57360	; 0xe010
     6ac:	f2ce 0300 	movt	r3, #57344	; 0xe000
     6b0:	f04f 0207 	mov.w	r2, #7
     6b4:	601a      	str	r2, [r3, #0]
     6b6:	f240 0310 	movw	r3, #16
     6ba:	f2c1 0300 	movt	r3, #4096	; 0x1000
     6be:	f04f 0400 	mov.w	r4, #0
     6c2:	601c      	str	r4, [r3, #0]
     6c4:	f7ff ffd2 	bl	66c <vPortStartFirstTask>
     6c8:	4620      	mov	r0, r4
     6ca:	bd10      	pop	{r4, pc}

000006cc <vPortEndScheduler>:
     6cc:	4770      	bx	lr
     6ce:	bf00      	nop

000006d0 <vPortYieldFromISR>:
     6d0:	f64e 5304 	movw	r3, #60676	; 0xed04
     6d4:	f2ce 0300 	movt	r3, #57344	; 0xe000
     6d8:	f04f 5280 	mov.w	r2, #268435456	; 0x10000000
     6dc:	601a      	str	r2, [r3, #0]
     6de:	4770      	bx	lr

000006e0 <vPortEnterCritical>:
     6e0:	f04f 0028 	mov.w	r0, #40	; 0x28
     6e4:	f380 8811 	msr	BASEPRI, r0
     6e8:	f240 0310 	movw	r3, #16
     6ec:	f2c1 0300 	movt	r3, #4096	; 0x1000
     6f0:	681a      	ldr	r2, [r3, #0]
     6f2:	f102 0201 	add.w	r2, r2, #1
     6f6:	601a      	str	r2, [r3, #0]
     6f8:	4770      	bx	lr
     6fa:	bf00      	nop

000006fc <vPortExitCritical>:
     6fc:	f240 0310 	movw	r3, #16
     700:	f2c1 0300 	movt	r3, #4096	; 0x1000
     704:	681a      	ldr	r2, [r3, #0]
     706:	f102 32ff 	add.w	r2, r2, #4294967295
     70a:	601a      	str	r2, [r3, #0]
     70c:	b91a      	cbnz	r2, 716 <vPortExitCritical+0x1a>
     70e:	f04f 0000 	mov.w	r0, #0
     712:	f380 8811 	msr	BASEPRI, r0
     716:	4770      	bx	lr

00000718 <xPortPendSVHandler>:
     718:	f3ef 8009 	mrs	r0, PSP
     71c:	4b0c      	ldr	r3, [pc, #48]	; (750 <pxCurrentTCBConst>)
     71e:	681a      	ldr	r2, [r3, #0]
     720:	e920 0ff0 	stmdb	r0!, {r4, r5, r6, r7, r8, r9, sl, fp}
     724:	6010      	str	r0, [r2, #0]
     726:	e92d 4008 	stmdb	sp!, {r3, lr}
     72a:	f04f 0028 	mov.w	r0, #40	; 0x28
     72e:	f380 8811 	msr	BASEPRI, r0
     732:	f000 fca5 	bl	1080 <vTaskSwitchContext>
     736:	f04f 0000 	mov.w	r0, #0
     73a:	f380 8811 	msr	BASEPRI, r0
     73e:	e8bd 4008 	ldmia.w	sp!, {r3, lr}
     742:	6819      	ldr	r1, [r3, #0]
     744:	6808      	ldr	r0, [r1, #0]
     746:	e8b0 0ff0 	ldmia.w	r0!, {r4, r5, r6, r7, r8, r9, sl, fp}
     74a:	f380 8809 	msr	PSP, r0
     74e:	4770      	bx	lr

00000750 <pxCurrentTCBConst>:
     750:	10000058 	.word	0x10000058

00000754 <xPortSysTickHandler>:
     754:	b508      	push	{r3, lr}
     756:	f24e 0310 	movw	r3, #57360	; 0xe010
     75a:	f2ce 0300 	movt	r3, #57344	; 0xe000
     75e:	689a      	ldr	r2, [r3, #8]
     760:	f240 0318 	movw	r3, #24
     764:	f2c1 0300 	movt	r3, #4096	; 0x1000
     768:	601a      	str	r2, [r3, #0]
     76a:	f04f 0028 	mov.w	r0, #40	; 0x28
     76e:	f380 8811 	msr	BASEPRI, r0
     772:	f000 fadb 	bl	d2c <vTaskIncrementTick>
     776:	f04f 0000 	mov.w	r0, #0
     77a:	f380 8811 	msr	BASEPRI, r0
     77e:	bd08      	pop	{r3, pc}
     780:	e000ed08 	.word	0xe000ed08

00000784 <vPrintString>:
     784:	b538      	push	{r3, r4, r5, lr}
     786:	4605      	mov	r5, r0
     788:	f000 faa8 	bl	cdc <vTaskSuspendAll>
     78c:	f240 0420 	movw	r4, #32
     790:	f2c1 0400 	movt	r4, #4096	; 0x1000
     794:	4620      	mov	r0, r4
     796:	4629      	mov	r1, r5
     798:	f002 fbc2 	bl	2f20 <strcpy>
     79c:	4620      	mov	r0, r4
     79e:	f000 f81b 	bl	7d8 <consoleprint>
     7a2:	f000 fb35 	bl	e10 <xTaskResumeAll>
     7a6:	bd38      	pop	{r3, r4, r5, pc}

000007a8 <vPrintStringAndNumber>:
     7a8:	b570      	push	{r4, r5, r6, lr}
     7aa:	4605      	mov	r5, r0
     7ac:	460e      	mov	r6, r1
     7ae:	f000 fa95 	bl	cdc <vTaskSuspendAll>
     7b2:	f240 0420 	movw	r4, #32
     7b6:	f2c1 0400 	movt	r4, #4096	; 0x1000
     7ba:	f643 71e0 	movw	r1, #16352	; 0x3fe0
     7be:	f2c0 0100 	movt	r1, #0
     7c2:	4620      	mov	r0, r4
     7c4:	462a      	mov	r2, r5
     7c6:	4633      	mov	r3, r6
     7c8:	f000 ffb4 	bl	1734 <sprintf>
     7cc:	4620      	mov	r0, r4
     7ce:	f000 f803 	bl	7d8 <consoleprint>
     7d2:	f000 fb1d 	bl	e10 <xTaskResumeAll>
     7d6:	bd70      	pop	{r4, r5, r6, pc}

000007d8 <consoleprint>:
     7d8:	b510      	push	{r4, lr}
     7da:	4604      	mov	r4, r0
     7dc:	f002 fbc2 	bl	2f64 <strlen>
     7e0:	4602      	mov	r2, r0
     7e2:	f04f 0000 	mov.w	r0, #0
     7e6:	4621      	mov	r1, r4
     7e8:	f000 ff48 	bl	167c <__sys_write>
     7ec:	bd10      	pop	{r4, pc}
     7ee:	bf00      	nop

000007f0 <xTaskGenericCreate>:
     7f0:	e92d 4ff8 	stmdb	sp!, {r3, r4, r5, r6, r7, r8, r9, sl, fp, lr}
     7f4:	4682      	mov	sl, r0
     7f6:	460f      	mov	r7, r1
     7f8:	4616      	mov	r6, r2
     7fa:	4699      	mov	r9, r3
     7fc:	f8dd b02c 	ldr.w	fp, [sp, #44]	; 0x2c
     800:	9d0c      	ldr	r5, [sp, #48]	; 0x30
     802:	f04f 0044 	mov.w	r0, #68	; 0x44
     806:	f000 fe47 	bl	1498 <pvPortMalloc>
     80a:	4604      	mov	r4, r0
     80c:	2800      	cmp	r0, #0
     80e:	f000 80de 	beq.w	9ce <xTaskGenericCreate+0x1de>
     812:	2d00      	cmp	r5, #0
     814:	f040 80e7 	bne.w	9e6 <xTaskGenericCreate+0x1f6>
     818:	ea4f 0086 	mov.w	r0, r6, lsl #2
     81c:	f000 fe3c 	bl	1498 <pvPortMalloc>
     820:	4605      	mov	r5, r0
     822:	6320      	str	r0, [r4, #48]	; 0x30
     824:	b930      	cbnz	r0, 834 <xTaskGenericCreate+0x44>
     826:	4620      	mov	r0, r4
     828:	f000 feac 	bl	1584 <vPortFree>
     82c:	f04f 30ff 	mov.w	r0, #4294967295
     830:	e8bd 8ff8 	ldmia.w	sp!, {r3, r4, r5, r6, r7, r8, r9, sl, fp, pc}
     834:	ea4f 0286 	mov.w	r2, r6, lsl #2
     838:	4628      	mov	r0, r5
     83a:	f04f 01a5 	mov.w	r1, #165	; 0xa5
     83e:	f000 ff2d 	bl	169c <memset>
     842:	f106 38ff 	add.w	r8, r6, #4294967295
     846:	6b23      	ldr	r3, [r4, #48]	; 0x30
     848:	eb03 0888 	add.w	r8, r3, r8, lsl #2
     84c:	f028 0807 	bic.w	r8, r8, #7
     850:	f104 0034 	add.w	r0, r4, #52	; 0x34
     854:	4639      	mov	r1, r7
     856:	f04f 020c 	mov.w	r2, #12
     85a:	f002 fba9 	bl	2fb0 <strncpy>
     85e:	f04f 0300 	mov.w	r3, #0
     862:	f884 303f 	strb.w	r3, [r4, #63]	; 0x3f
     866:	9d0a      	ldr	r5, [sp, #40]	; 0x28
     868:	2d04      	cmp	r5, #4
     86a:	bf28      	it	cs
     86c:	2504      	movcs	r5, #4
     86e:	62e5      	str	r5, [r4, #44]	; 0x2c
     870:	6425      	str	r5, [r4, #64]	; 0x40
     872:	f104 0604 	add.w	r6, r4, #4
     876:	4630      	mov	r0, r6
     878:	f000 feba 	bl	15f0 <vListInitialiseItem>
     87c:	f104 0018 	add.w	r0, r4, #24
     880:	f000 feb6 	bl	15f0 <vListInitialiseItem>
     884:	6124      	str	r4, [r4, #16]
     886:	f1c5 0505 	rsb	r5, r5, #5
     88a:	61a5      	str	r5, [r4, #24]
     88c:	6264      	str	r4, [r4, #36]	; 0x24
     88e:	4640      	mov	r0, r8
     890:	4651      	mov	r1, sl
     892:	464a      	mov	r2, r9
     894:	f7ff feca 	bl	62c <pxPortInitialiseStack>
     898:	6020      	str	r0, [r4, #0]
     89a:	f1bb 0f00 	cmp.w	fp, #0
     89e:	d001      	beq.n	8a4 <xTaskGenericCreate+0xb4>
     8a0:	f8cb 4000 	str.w	r4, [fp]
     8a4:	f7ff ff1c 	bl	6e0 <vPortEnterCritical>
     8a8:	f240 0354 	movw	r3, #84	; 0x54
     8ac:	f2c1 0300 	movt	r3, #4096	; 0x1000
     8b0:	681a      	ldr	r2, [r3, #0]
     8b2:	f102 0201 	add.w	r2, r2, #1
     8b6:	601a      	str	r2, [r3, #0]
     8b8:	685b      	ldr	r3, [r3, #4]
     8ba:	bb9b      	cbnz	r3, 924 <xTaskGenericCreate+0x134>
     8bc:	f240 0354 	movw	r3, #84	; 0x54
     8c0:	f2c1 0300 	movt	r3, #4096	; 0x1000
     8c4:	605c      	str	r4, [r3, #4]
     8c6:	681b      	ldr	r3, [r3, #0]
     8c8:	2b01      	cmp	r3, #1
     8ca:	d140      	bne.n	94e <xTaskGenericCreate+0x15e>
     8cc:	f04f 0500 	mov.w	r5, #0
     8d0:	4f46      	ldr	r7, [pc, #280]	; (9ec <xTaskGenericCreate+0x1fc>)
     8d2:	eb05 0085 	add.w	r0, r5, r5, lsl #2
     8d6:	eb07 0080 	add.w	r0, r7, r0, lsl #2
     8da:	f000 fe7d 	bl	15d8 <vListInitialise>
     8de:	f105 0501 	add.w	r5, r5, #1
     8e2:	2d05      	cmp	r5, #5
     8e4:	d1f5      	bne.n	8d2 <xTaskGenericCreate+0xe2>
     8e6:	f240 0554 	movw	r5, #84	; 0x54
     8ea:	f2c1 0500 	movt	r5, #4096	; 0x1000
     8ee:	f105 076c 	add.w	r7, r5, #108	; 0x6c
     8f2:	4638      	mov	r0, r7
     8f4:	f000 fe70 	bl	15d8 <vListInitialise>
     8f8:	f105 0880 	add.w	r8, r5, #128	; 0x80
     8fc:	4640      	mov	r0, r8
     8fe:	f000 fe6b 	bl	15d8 <vListInitialise>
     902:	f105 0094 	add.w	r0, r5, #148	; 0x94
     906:	f000 fe67 	bl	15d8 <vListInitialise>
     90a:	f105 00a8 	add.w	r0, r5, #168	; 0xa8
     90e:	f000 fe63 	bl	15d8 <vListInitialise>
     912:	f105 00bc 	add.w	r0, r5, #188	; 0xbc
     916:	f000 fe5f 	bl	15d8 <vListInitialise>
     91a:	f8c5 70d0 	str.w	r7, [r5, #208]	; 0xd0
     91e:	f8c5 80d4 	str.w	r8, [r5, #212]	; 0xd4
     922:	e014      	b.n	94e <xTaskGenericCreate+0x15e>
     924:	f240 0354 	movw	r3, #84	; 0x54
     928:	f2c1 0300 	movt	r3, #4096	; 0x1000
     92c:	f8d3 30d8 	ldr.w	r3, [r3, #216]	; 0xd8
     930:	b96b      	cbnz	r3, 94e <xTaskGenericCreate+0x15e>
     932:	f240 0354 	movw	r3, #84	; 0x54
     936:	f2c1 0300 	movt	r3, #4096	; 0x1000
     93a:	685b      	ldr	r3, [r3, #4]
     93c:	6adb      	ldr	r3, [r3, #44]	; 0x2c
     93e:	9a0a      	ldr	r2, [sp, #40]	; 0x28
     940:	429a      	cmp	r2, r3
     942:	d304      	bcc.n	94e <xTaskGenericCreate+0x15e>
     944:	f240 0354 	movw	r3, #84	; 0x54
     948:	f2c1 0300 	movt	r3, #4096	; 0x1000
     94c:	605c      	str	r4, [r3, #4]
     94e:	6ae3      	ldr	r3, [r4, #44]	; 0x2c
     950:	f240 0254 	movw	r2, #84	; 0x54
     954:	f2c1 0200 	movt	r2, #4096	; 0x1000
     958:	f8d2 20dc 	ldr.w	r2, [r2, #220]	; 0xdc
     95c:	4293      	cmp	r3, r2
     95e:	d905      	bls.n	96c <xTaskGenericCreate+0x17c>
     960:	f240 0254 	movw	r2, #84	; 0x54
     964:	f2c1 0200 	movt	r2, #4096	; 0x1000
     968:	f8c2 30dc 	str.w	r3, [r2, #220]	; 0xdc
     96c:	f240 0254 	movw	r2, #84	; 0x54
     970:	f2c1 0200 	movt	r2, #4096	; 0x1000
     974:	f8d2 10e0 	ldr.w	r1, [r2, #224]	; 0xe0
     978:	f101 0101 	add.w	r1, r1, #1
     97c:	f8c2 10e0 	str.w	r1, [r2, #224]	; 0xe0
     980:	f8d2 20e4 	ldr.w	r2, [r2, #228]	; 0xe4
     984:	4293      	cmp	r3, r2
     986:	d905      	bls.n	994 <xTaskGenericCreate+0x1a4>
     988:	f240 0254 	movw	r2, #84	; 0x54
     98c:	f2c1 0200 	movt	r2, #4096	; 0x1000
     990:	f8c2 30e4 	str.w	r3, [r2, #228]	; 0xe4
     994:	f240 0454 	movw	r4, #84	; 0x54
     998:	f2c1 0400 	movt	r4, #4096	; 0x1000
     99c:	f104 0208 	add.w	r2, r4, #8
     9a0:	eb03 0383 	add.w	r3, r3, r3, lsl #2
     9a4:	eb02 0083 	add.w	r0, r2, r3, lsl #2
     9a8:	4631      	mov	r1, r6
     9aa:	f000 fe25 	bl	15f8 <vListInsertEnd>
     9ae:	f7ff fea5 	bl	6fc <vPortExitCritical>
     9b2:	f8d4 30d8 	ldr.w	r3, [r4, #216]	; 0xd8
     9b6:	b173      	cbz	r3, 9d6 <xTaskGenericCreate+0x1e6>
     9b8:	6863      	ldr	r3, [r4, #4]
     9ba:	6adb      	ldr	r3, [r3, #44]	; 0x2c
     9bc:	9a0a      	ldr	r2, [sp, #40]	; 0x28
     9be:	429a      	cmp	r2, r3
     9c0:	d90d      	bls.n	9de <xTaskGenericCreate+0x1ee>
     9c2:	f7ff fe85 	bl	6d0 <vPortYieldFromISR>
     9c6:	f04f 0001 	mov.w	r0, #1
     9ca:	e8bd 8ff8 	ldmia.w	sp!, {r3, r4, r5, r6, r7, r8, r9, sl, fp, pc}
     9ce:	f04f 30ff 	mov.w	r0, #4294967295
     9d2:	e8bd 8ff8 	ldmia.w	sp!, {r3, r4, r5, r6, r7, r8, r9, sl, fp, pc}
     9d6:	f04f 0001 	mov.w	r0, #1
     9da:	e8bd 8ff8 	ldmia.w	sp!, {r3, r4, r5, r6, r7, r8, r9, sl, fp, pc}
     9de:	f04f 0001 	mov.w	r0, #1
     9e2:	e8bd 8ff8 	ldmia.w	sp!, {r3, r4, r5, r6, r7, r8, r9, sl, fp, pc}
     9e6:	6305      	str	r5, [r0, #48]	; 0x30
     9e8:	e724      	b.n	834 <xTaskGenericCreate+0x44>
     9ea:	bf00      	nop
     9ec:	1000005c 	.word	0x1000005c

000009f0 <vTaskDelete>:
     9f0:	b570      	push	{r4, r5, r6, lr}
     9f2:	4605      	mov	r5, r0
     9f4:	f7ff fe74 	bl	6e0 <vPortEnterCritical>
     9f8:	f240 0354 	movw	r3, #84	; 0x54
     9fc:	f2c1 0300 	movt	r3, #4096	; 0x1000
     a00:	685b      	ldr	r3, [r3, #4]
     a02:	429d      	cmp	r5, r3
     a04:	d001      	beq.n	a0a <vTaskDelete+0x1a>
     a06:	b945      	cbnz	r5, a1a <vTaskDelete+0x2a>
     a08:	e001      	b.n	a0e <vTaskDelete+0x1e>
     a0a:	f04f 0500 	mov.w	r5, #0
     a0e:	f240 0354 	movw	r3, #84	; 0x54
     a12:	f2c1 0300 	movt	r3, #4096	; 0x1000
     a16:	685c      	ldr	r4, [r3, #4]
     a18:	e000      	b.n	a1c <vTaskDelete+0x2c>
     a1a:	462c      	mov	r4, r5
     a1c:	f104 0604 	add.w	r6, r4, #4
     a20:	4630      	mov	r0, r6
     a22:	f000 fe17 	bl	1654 <vListRemove>
     a26:	6aa3      	ldr	r3, [r4, #40]	; 0x28
     a28:	b11b      	cbz	r3, a32 <vTaskDelete+0x42>
     a2a:	f104 0018 	add.w	r0, r4, #24
     a2e:	f000 fe11 	bl	1654 <vListRemove>
     a32:	f240 0454 	movw	r4, #84	; 0x54
     a36:	f2c1 0400 	movt	r4, #4096	; 0x1000
     a3a:	f104 00a8 	add.w	r0, r4, #168	; 0xa8
     a3e:	4631      	mov	r1, r6
     a40:	f000 fdda 	bl	15f8 <vListInsertEnd>
     a44:	f8d4 30e8 	ldr.w	r3, [r4, #232]	; 0xe8
     a48:	f103 0301 	add.w	r3, r3, #1
     a4c:	f8c4 30e8 	str.w	r3, [r4, #232]	; 0xe8
     a50:	f8d4 30e0 	ldr.w	r3, [r4, #224]	; 0xe0
     a54:	f103 0301 	add.w	r3, r3, #1
     a58:	f8c4 30e0 	str.w	r3, [r4, #224]	; 0xe0
     a5c:	f7ff fe4e 	bl	6fc <vPortExitCritical>
     a60:	f8d4 30d8 	ldr.w	r3, [r4, #216]	; 0xd8
     a64:	b113      	cbz	r3, a6c <vTaskDelete+0x7c>
     a66:	b90d      	cbnz	r5, a6c <vTaskDelete+0x7c>
     a68:	f7ff fe32 	bl	6d0 <vPortYieldFromISR>
     a6c:	bd70      	pop	{r4, r5, r6, pc}
     a6e:	bf00      	nop

00000a70 <uxTaskPriorityGet>:
     a70:	b510      	push	{r4, lr}
     a72:	4604      	mov	r4, r0
     a74:	f7ff fe34 	bl	6e0 <vPortEnterCritical>
     a78:	b924      	cbnz	r4, a84 <uxTaskPriorityGet+0x14>
     a7a:	f240 0354 	movw	r3, #84	; 0x54
     a7e:	f2c1 0300 	movt	r3, #4096	; 0x1000
     a82:	685c      	ldr	r4, [r3, #4]
     a84:	6ae4      	ldr	r4, [r4, #44]	; 0x2c
     a86:	f7ff fe39 	bl	6fc <vPortExitCritical>
     a8a:	4620      	mov	r0, r4
     a8c:	bd10      	pop	{r4, pc}
     a8e:	bf00      	nop

00000a90 <vTaskPrioritySet>:
     a90:	b570      	push	{r4, r5, r6, lr}
     a92:	4605      	mov	r5, r0
     a94:	2904      	cmp	r1, #4
     a96:	bf34      	ite	cc
     a98:	460e      	movcc	r6, r1
     a9a:	2604      	movcs	r6, #4
     a9c:	f7ff fe20 	bl	6e0 <vPortEnterCritical>
     aa0:	f240 0354 	movw	r3, #84	; 0x54
     aa4:	f2c1 0300 	movt	r3, #4096	; 0x1000
     aa8:	685b      	ldr	r3, [r3, #4]
     aaa:	429d      	cmp	r5, r3
     aac:	d001      	beq.n	ab2 <vTaskPrioritySet+0x22>
     aae:	b945      	cbnz	r5, ac2 <vTaskPrioritySet+0x32>
     ab0:	e001      	b.n	ab6 <vTaskPrioritySet+0x26>
     ab2:	f04f 0500 	mov.w	r5, #0
     ab6:	f240 0354 	movw	r3, #84	; 0x54
     aba:	f2c1 0300 	movt	r3, #4096	; 0x1000
     abe:	685c      	ldr	r4, [r3, #4]
     ac0:	e000      	b.n	ac4 <vTaskPrioritySet+0x34>
     ac2:	462c      	mov	r4, r5
     ac4:	6c23      	ldr	r3, [r4, #64]	; 0x40
     ac6:	42b3      	cmp	r3, r6
     ac8:	d037      	beq.n	b3a <vTaskPrioritySet+0xaa>
     aca:	d203      	bcs.n	ad4 <vTaskPrioritySet+0x44>
     acc:	3500      	adds	r5, #0
     ace:	bf18      	it	ne
     ad0:	2501      	movne	r5, #1
     ad2:	e003      	b.n	adc <vTaskPrioritySet+0x4c>
     ad4:	f1d5 0501 	rsbs	r5, r5, #1
     ad8:	bf38      	it	cc
     ada:	2500      	movcc	r5, #0
     adc:	6ae2      	ldr	r2, [r4, #44]	; 0x2c
     ade:	4293      	cmp	r3, r2
     ae0:	bf08      	it	eq
     ae2:	62e6      	streq	r6, [r4, #44]	; 0x2c
     ae4:	6426      	str	r6, [r4, #64]	; 0x40
     ae6:	f1c6 0605 	rsb	r6, r6, #5
     aea:	61a6      	str	r6, [r4, #24]
     aec:	eb03 0383 	add.w	r3, r3, r3, lsl #2
     af0:	4a13      	ldr	r2, [pc, #76]	; (b40 <vTaskPrioritySet+0xb0>)
     af2:	eb02 0383 	add.w	r3, r2, r3, lsl #2
     af6:	6962      	ldr	r2, [r4, #20]
     af8:	429a      	cmp	r2, r3
     afa:	d11b      	bne.n	b34 <vTaskPrioritySet+0xa4>
     afc:	f104 0604 	add.w	r6, r4, #4
     b00:	4630      	mov	r0, r6
     b02:	f000 fda7 	bl	1654 <vListRemove>
     b06:	6ae3      	ldr	r3, [r4, #44]	; 0x2c
     b08:	f240 0254 	movw	r2, #84	; 0x54
     b0c:	f2c1 0200 	movt	r2, #4096	; 0x1000
     b10:	f8d2 20e4 	ldr.w	r2, [r2, #228]	; 0xe4
     b14:	4293      	cmp	r3, r2
     b16:	d905      	bls.n	b24 <vTaskPrioritySet+0x94>
     b18:	f240 0254 	movw	r2, #84	; 0x54
     b1c:	f2c1 0200 	movt	r2, #4096	; 0x1000
     b20:	f8c2 30e4 	str.w	r3, [r2, #228]	; 0xe4
     b24:	eb03 0383 	add.w	r3, r3, r3, lsl #2
     b28:	4a05      	ldr	r2, [pc, #20]	; (b40 <vTaskPrioritySet+0xb0>)
     b2a:	eb02 0083 	add.w	r0, r2, r3, lsl #2
     b2e:	4631      	mov	r1, r6
     b30:	f000 fd62 	bl	15f8 <vListInsertEnd>
     b34:	b10d      	cbz	r5, b3a <vTaskPrioritySet+0xaa>
     b36:	f7ff fdcb 	bl	6d0 <vPortYieldFromISR>
     b3a:	f7ff fddf 	bl	6fc <vPortExitCritical>
     b3e:	bd70      	pop	{r4, r5, r6, pc}
     b40:	1000005c 	.word	0x1000005c

00000b44 <xTaskIsTaskSuspended>:
     b44:	6942      	ldr	r2, [r0, #20]
     b46:	4b09      	ldr	r3, [pc, #36]	; (b6c <xTaskIsTaskSuspended+0x28>)
     b48:	429a      	cmp	r2, r3
     b4a:	d109      	bne.n	b60 <xTaskIsTaskSuspended+0x1c>
     b4c:	6a80      	ldr	r0, [r0, #40]	; 0x28
     b4e:	f1a3 0328 	sub.w	r3, r3, #40	; 0x28
     b52:	4298      	cmp	r0, r3
     b54:	d007      	beq.n	b66 <xTaskIsTaskSuspended+0x22>
     b56:	f1d0 0001 	rsbs	r0, r0, #1
     b5a:	bf38      	it	cc
     b5c:	2000      	movcc	r0, #0
     b5e:	4770      	bx	lr
     b60:	f04f 0000 	mov.w	r0, #0
     b64:	4770      	bx	lr
     b66:	f04f 0000 	mov.w	r0, #0
     b6a:	4770      	bx	lr
     b6c:	10000110 	.word	0x10000110

00000b70 <vTaskResume>:
     b70:	b570      	push	{r4, r5, r6, lr}
     b72:	4604      	mov	r4, r0
     b74:	2800      	cmp	r0, #0
     b76:	d037      	beq.n	be8 <vTaskResume+0x78>
     b78:	f240 0354 	movw	r3, #84	; 0x54
     b7c:	f2c1 0300 	movt	r3, #4096	; 0x1000
     b80:	685b      	ldr	r3, [r3, #4]
     b82:	4298      	cmp	r0, r3
     b84:	d030      	beq.n	be8 <vTaskResume+0x78>
     b86:	f7ff fdab 	bl	6e0 <vPortEnterCritical>
     b8a:	4620      	mov	r0, r4
     b8c:	f7ff ffda 	bl	b44 <xTaskIsTaskSuspended>
     b90:	2801      	cmp	r0, #1
     b92:	d127      	bne.n	be4 <vTaskResume+0x74>
     b94:	f104 0604 	add.w	r6, r4, #4
     b98:	4630      	mov	r0, r6
     b9a:	f000 fd5b 	bl	1654 <vListRemove>
     b9e:	6ae3      	ldr	r3, [r4, #44]	; 0x2c
     ba0:	f240 0254 	movw	r2, #84	; 0x54
     ba4:	f2c1 0200 	movt	r2, #4096	; 0x1000
     ba8:	f8d2 20e4 	ldr.w	r2, [r2, #228]	; 0xe4
     bac:	4293      	cmp	r3, r2
     bae:	d905      	bls.n	bbc <vTaskResume+0x4c>
     bb0:	f240 0254 	movw	r2, #84	; 0x54
     bb4:	f2c1 0200 	movt	r2, #4096	; 0x1000
     bb8:	f8c2 30e4 	str.w	r3, [r2, #228]	; 0xe4
     bbc:	f240 0554 	movw	r5, #84	; 0x54
     bc0:	f2c1 0500 	movt	r5, #4096	; 0x1000
     bc4:	f105 0208 	add.w	r2, r5, #8
     bc8:	eb03 0383 	add.w	r3, r3, r3, lsl #2
     bcc:	eb02 0083 	add.w	r0, r2, r3, lsl #2
     bd0:	4631      	mov	r1, r6
     bd2:	f000 fd11 	bl	15f8 <vListInsertEnd>
     bd6:	686b      	ldr	r3, [r5, #4]
     bd8:	6ae2      	ldr	r2, [r4, #44]	; 0x2c
     bda:	6adb      	ldr	r3, [r3, #44]	; 0x2c
     bdc:	429a      	cmp	r2, r3
     bde:	d301      	bcc.n	be4 <vTaskResume+0x74>
     be0:	f7ff fd76 	bl	6d0 <vPortYieldFromISR>
     be4:	f7ff fd8a 	bl	6fc <vPortExitCritical>
     be8:	bd70      	pop	{r4, r5, r6, pc}
     bea:	bf00      	nop

00000bec <xTaskResumeFromISR>:
     bec:	b5f8      	push	{r3, r4, r5, r6, r7, lr}
     bee:	4604      	mov	r4, r0
     bf0:	f7ff ffa8 	bl	b44 <xTaskIsTaskSuspended>
     bf4:	2801      	cmp	r0, #1
     bf6:	d12e      	bne.n	c56 <xTaskResumeFromISR+0x6a>
     bf8:	f240 0354 	movw	r3, #84	; 0x54
     bfc:	f2c1 0300 	movt	r3, #4096	; 0x1000
     c00:	f8d3 30ec 	ldr.w	r3, [r3, #236]	; 0xec
     c04:	b9fb      	cbnz	r3, c46 <xTaskResumeFromISR+0x5a>
     c06:	f240 0654 	movw	r6, #84	; 0x54
     c0a:	f2c1 0600 	movt	r6, #4096	; 0x1000
     c0e:	6873      	ldr	r3, [r6, #4]
     c10:	6ae5      	ldr	r5, [r4, #44]	; 0x2c
     c12:	6adb      	ldr	r3, [r3, #44]	; 0x2c
     c14:	429d      	cmp	r5, r3
     c16:	bf34      	ite	cc
     c18:	2500      	movcc	r5, #0
     c1a:	2501      	movcs	r5, #1
     c1c:	f104 0704 	add.w	r7, r4, #4
     c20:	4638      	mov	r0, r7
     c22:	f000 fd17 	bl	1654 <vListRemove>
     c26:	6ae0      	ldr	r0, [r4, #44]	; 0x2c
     c28:	f8d6 30e4 	ldr.w	r3, [r6, #228]	; 0xe4
     c2c:	4298      	cmp	r0, r3
     c2e:	d901      	bls.n	c34 <xTaskResumeFromISR+0x48>
     c30:	f8c6 00e4 	str.w	r0, [r6, #228]	; 0xe4
     c34:	eb00 0080 	add.w	r0, r0, r0, lsl #2
     c38:	4b09      	ldr	r3, [pc, #36]	; (c60 <xTaskResumeFromISR+0x74>)
     c3a:	eb03 0080 	add.w	r0, r3, r0, lsl #2
     c3e:	4639      	mov	r1, r7
     c40:	f000 fcda 	bl	15f8 <vListInsertEnd>
     c44:	e009      	b.n	c5a <xTaskResumeFromISR+0x6e>
     c46:	f104 0118 	add.w	r1, r4, #24
     c4a:	4806      	ldr	r0, [pc, #24]	; (c64 <xTaskResumeFromISR+0x78>)
     c4c:	f000 fcd4 	bl	15f8 <vListInsertEnd>
     c50:	f04f 0500 	mov.w	r5, #0
     c54:	e001      	b.n	c5a <xTaskResumeFromISR+0x6e>
     c56:	f04f 0500 	mov.w	r5, #0
     c5a:	4628      	mov	r0, r5
     c5c:	bdf8      	pop	{r3, r4, r5, r6, r7, pc}
     c5e:	bf00      	nop
     c60:	1000005c 	.word	0x1000005c
     c64:	100000e8 	.word	0x100000e8

00000c68 <vTaskStartScheduler>:
     c68:	b500      	push	{lr}
     c6a:	b085      	sub	sp, #20
     c6c:	f640 7021 	movw	r0, #3873	; 0xf21
     c70:	f2c0 0000 	movt	r0, #0
     c74:	f643 71fc 	movw	r1, #16380	; 0x3ffc
     c78:	f2c0 0100 	movt	r1, #0
     c7c:	f04f 0300 	mov.w	r3, #0
     c80:	9300      	str	r3, [sp, #0]
     c82:	9301      	str	r3, [sp, #4]
     c84:	9302      	str	r3, [sp, #8]
     c86:	9303      	str	r3, [sp, #12]
     c88:	f04f 0264 	mov.w	r2, #100	; 0x64
     c8c:	f7ff fdb0 	bl	7f0 <xTaskGenericCreate>
     c90:	2801      	cmp	r0, #1
     c92:	d111      	bne.n	cb8 <vTaskStartScheduler+0x50>
     c94:	f04f 0028 	mov.w	r0, #40	; 0x28
     c98:	f380 8811 	msr	BASEPRI, r0
     c9c:	f240 0354 	movw	r3, #84	; 0x54
     ca0:	f2c1 0300 	movt	r3, #4096	; 0x1000
     ca4:	f04f 0201 	mov.w	r2, #1
     ca8:	f8c3 20d8 	str.w	r2, [r3, #216]	; 0xd8
     cac:	f04f 0200 	mov.w	r2, #0
     cb0:	f8c3 20f0 	str.w	r2, [r3, #240]	; 0xf0
     cb4:	f7ff fce2 	bl	67c <xPortStartScheduler>
     cb8:	b005      	add	sp, #20
     cba:	bd00      	pop	{pc}

00000cbc <vTaskEndScheduler>:
     cbc:	b508      	push	{r3, lr}
     cbe:	f04f 0028 	mov.w	r0, #40	; 0x28
     cc2:	f380 8811 	msr	BASEPRI, r0
     cc6:	f240 0354 	movw	r3, #84	; 0x54
     cca:	f2c1 0300 	movt	r3, #4096	; 0x1000
     cce:	f04f 0200 	mov.w	r2, #0
     cd2:	f8c3 20d8 	str.w	r2, [r3, #216]	; 0xd8
     cd6:	f7ff fcf9 	bl	6cc <vPortEndScheduler>
     cda:	bd08      	pop	{r3, pc}

00000cdc <vTaskSuspendAll>:
     cdc:	f240 0354 	movw	r3, #84	; 0x54
     ce0:	f2c1 0300 	movt	r3, #4096	; 0x1000
     ce4:	f8d3 20ec 	ldr.w	r2, [r3, #236]	; 0xec
     ce8:	f102 0201 	add.w	r2, r2, #1
     cec:	f8c3 20ec 	str.w	r2, [r3, #236]	; 0xec
     cf0:	4770      	bx	lr
     cf2:	bf00      	nop

00000cf4 <xTaskGetTickCount>:
     cf4:	b510      	push	{r4, lr}
     cf6:	f7ff fcf3 	bl	6e0 <vPortEnterCritical>
     cfa:	f240 0354 	movw	r3, #84	; 0x54
     cfe:	f2c1 0300 	movt	r3, #4096	; 0x1000
     d02:	f8d3 40f0 	ldr.w	r4, [r3, #240]	; 0xf0
     d06:	f7ff fcf9 	bl	6fc <vPortExitCritical>
     d0a:	4620      	mov	r0, r4
     d0c:	bd10      	pop	{r4, pc}
     d0e:	bf00      	nop

00000d10 <xTaskGetTickCountFromISR>:
     d10:	f240 0354 	movw	r3, #84	; 0x54
     d14:	f2c1 0300 	movt	r3, #4096	; 0x1000
     d18:	f8d3 00f0 	ldr.w	r0, [r3, #240]	; 0xf0
     d1c:	4770      	bx	lr
     d1e:	bf00      	nop

00000d20 <uxTaskGetNumberOfTasks>:
     d20:	f240 0354 	movw	r3, #84	; 0x54
     d24:	f2c1 0300 	movt	r3, #4096	; 0x1000
     d28:	6818      	ldr	r0, [r3, #0]
     d2a:	4770      	bx	lr

00000d2c <vTaskIncrementTick>:
     d2c:	b5f8      	push	{r3, r4, r5, r6, r7, lr}
     d2e:	f240 0354 	movw	r3, #84	; 0x54
     d32:	f2c1 0300 	movt	r3, #4096	; 0x1000
     d36:	f8d3 30ec 	ldr.w	r3, [r3, #236]	; 0xec
     d3a:	2b00      	cmp	r3, #0
     d3c:	d151      	bne.n	de2 <vTaskIncrementTick+0xb6>
     d3e:	f240 0354 	movw	r3, #84	; 0x54
     d42:	f2c1 0300 	movt	r3, #4096	; 0x1000
     d46:	f8d3 20f0 	ldr.w	r2, [r3, #240]	; 0xf0
     d4a:	f102 0201 	add.w	r2, r2, #1
     d4e:	f8c3 20f0 	str.w	r2, [r3, #240]	; 0xf0
     d52:	f8d3 30f0 	ldr.w	r3, [r3, #240]	; 0xf0
     d56:	bb9b      	cbnz	r3, dc0 <vTaskIncrementTick+0x94>
     d58:	f240 0354 	movw	r3, #84	; 0x54
     d5c:	f2c1 0300 	movt	r3, #4096	; 0x1000
     d60:	f8d3 20d0 	ldr.w	r2, [r3, #208]	; 0xd0
     d64:	f8d3 10d4 	ldr.w	r1, [r3, #212]	; 0xd4
     d68:	f8c3 10d0 	str.w	r1, [r3, #208]	; 0xd0
     d6c:	f8c3 20d4 	str.w	r2, [r3, #212]	; 0xd4
     d70:	f8d3 20f4 	ldr.w	r2, [r3, #244]	; 0xf4
     d74:	f102 0201 	add.w	r2, r2, #1
     d78:	f8c3 20f4 	str.w	r2, [r3, #244]	; 0xf4
     d7c:	e020      	b.n	dc0 <vTaskIncrementTick+0x94>
     d7e:	f8d5 30f0 	ldr.w	r3, [r5, #240]	; 0xf0
     d82:	6862      	ldr	r2, [r4, #4]
     d84:	429a      	cmp	r2, r3
     d86:	d838      	bhi.n	dfa <vTaskIncrementTick+0xce>
     d88:	f104 0604 	add.w	r6, r4, #4
     d8c:	4630      	mov	r0, r6
     d8e:	f000 fc61 	bl	1654 <vListRemove>
     d92:	6aa3      	ldr	r3, [r4, #40]	; 0x28
     d94:	b11b      	cbz	r3, d9e <vTaskIncrementTick+0x72>
     d96:	f104 0018 	add.w	r0, r4, #24
     d9a:	f000 fc5b 	bl	1654 <vListRemove>
     d9e:	6ae0      	ldr	r0, [r4, #44]	; 0x2c
     da0:	f8d5 30e4 	ldr.w	r3, [r5, #228]	; 0xe4
     da4:	4298      	cmp	r0, r3
     da6:	bf88      	it	hi
     da8:	f8c5 00e4 	strhi.w	r0, [r5, #228]	; 0xe4
     dac:	eb00 0080 	add.w	r0, r0, r0, lsl #2
     db0:	eb07 0080 	add.w	r0, r7, r0, lsl #2
     db4:	4631      	mov	r1, r6
     db6:	f000 fc1f 	bl	15f8 <vListInsertEnd>
     dba:	f7ff fc89 	bl	6d0 <vPortYieldFromISR>
     dbe:	e005      	b.n	dcc <vTaskIncrementTick+0xa0>
     dc0:	f240 0554 	movw	r5, #84	; 0x54
     dc4:	f2c1 0500 	movt	r5, #4096	; 0x1000
     dc8:	f105 0708 	add.w	r7, r5, #8
     dcc:	f8d5 30d0 	ldr.w	r3, [r5, #208]	; 0xd0
     dd0:	681b      	ldr	r3, [r3, #0]
     dd2:	b193      	cbz	r3, dfa <vTaskIncrementTick+0xce>
     dd4:	f8d5 30d0 	ldr.w	r3, [r5, #208]	; 0xd0
     dd8:	68db      	ldr	r3, [r3, #12]
     dda:	68dc      	ldr	r4, [r3, #12]
     ddc:	2c00      	cmp	r4, #0
     dde:	d1ce      	bne.n	d7e <vTaskIncrementTick+0x52>
     de0:	e00b      	b.n	dfa <vTaskIncrementTick+0xce>
     de2:	f240 0354 	movw	r3, #84	; 0x54
     de6:	f2c1 0300 	movt	r3, #4096	; 0x1000
     dea:	f8d3 20f8 	ldr.w	r2, [r3, #248]	; 0xf8
     dee:	f102 0201 	add.w	r2, r2, #1
     df2:	f8c3 20f8 	str.w	r2, [r3, #248]	; 0xf8
     df6:	f7ff fabd 	bl	374 <vApplicationTickHook>
     dfa:	f240 0354 	movw	r3, #84	; 0x54
     dfe:	f2c1 0300 	movt	r3, #4096	; 0x1000
     e02:	f8d3 30f8 	ldr.w	r3, [r3, #248]	; 0xf8
     e06:	b90b      	cbnz	r3, e0c <vTaskIncrementTick+0xe0>
     e08:	f7ff fab4 	bl	374 <vApplicationTickHook>
     e0c:	bdf8      	pop	{r3, r4, r5, r6, r7, pc}
     e0e:	bf00      	nop

00000e10 <xTaskResumeAll>:
     e10:	e92d 41f0 	stmdb	sp!, {r4, r5, r6, r7, r8, lr}
     e14:	f7ff fc64 	bl	6e0 <vPortEnterCritical>
     e18:	f240 0354 	movw	r3, #84	; 0x54
     e1c:	f2c1 0300 	movt	r3, #4096	; 0x1000
     e20:	f8d3 20ec 	ldr.w	r2, [r3, #236]	; 0xec
     e24:	f102 32ff 	add.w	r2, r2, #4294967295
     e28:	f8c3 20ec 	str.w	r2, [r3, #236]	; 0xec
     e2c:	f8d3 30ec 	ldr.w	r3, [r3, #236]	; 0xec
     e30:	2b00      	cmp	r3, #0
     e32:	d16b      	bne.n	f0c <xTaskResumeAll+0xfc>
     e34:	f240 0354 	movw	r3, #84	; 0x54
     e38:	f2c1 0300 	movt	r3, #4096	; 0x1000
     e3c:	681b      	ldr	r3, [r3, #0]
     e3e:	bb03      	cbnz	r3, e82 <xTaskResumeAll+0x72>
     e40:	f04f 0400 	mov.w	r4, #0
     e44:	e067      	b.n	f16 <xTaskResumeAll+0x106>
     e46:	f104 0018 	add.w	r0, r4, #24
     e4a:	f000 fc03 	bl	1654 <vListRemove>
     e4e:	f104 0604 	add.w	r6, r4, #4
     e52:	4630      	mov	r0, r6
     e54:	f000 fbfe 	bl	1654 <vListRemove>
     e58:	6ae0      	ldr	r0, [r4, #44]	; 0x2c
     e5a:	f8d5 30e4 	ldr.w	r3, [r5, #228]	; 0xe4
     e5e:	4298      	cmp	r0, r3
     e60:	bf88      	it	hi
     e62:	f8c5 00e4 	strhi.w	r0, [r5, #228]	; 0xe4
     e66:	eb00 0080 	add.w	r0, r0, r0, lsl #2
     e6a:	eb08 0080 	add.w	r0, r8, r0, lsl #2
     e6e:	4631      	mov	r1, r6
     e70:	f000 fbc2 	bl	15f8 <vListInsertEnd>
     e74:	686b      	ldr	r3, [r5, #4]
     e76:	6ae2      	ldr	r2, [r4, #44]	; 0x2c
     e78:	6adb      	ldr	r3, [r3, #44]	; 0x2c
     e7a:	429a      	cmp	r2, r3
     e7c:	bf28      	it	cs
     e7e:	2701      	movcs	r7, #1
     e80:	e007      	b.n	e92 <xTaskResumeAll+0x82>
     e82:	f04f 0700 	mov.w	r7, #0
     e86:	f240 0554 	movw	r5, #84	; 0x54
     e8a:	f2c1 0500 	movt	r5, #4096	; 0x1000
     e8e:	f105 0808 	add.w	r8, r5, #8
     e92:	f8d5 3094 	ldr.w	r3, [r5, #148]	; 0x94
     e96:	b123      	cbz	r3, ea2 <xTaskResumeAll+0x92>
     e98:	f8d5 30a0 	ldr.w	r3, [r5, #160]	; 0xa0
     e9c:	68dc      	ldr	r4, [r3, #12]
     e9e:	2c00      	cmp	r4, #0
     ea0:	d1d1      	bne.n	e46 <xTaskResumeAll+0x36>
     ea2:	f240 0354 	movw	r3, #84	; 0x54
     ea6:	f2c1 0300 	movt	r3, #4096	; 0x1000
     eaa:	f8d3 30f8 	ldr.w	r3, [r3, #248]	; 0xf8
     eae:	b1b3      	cbz	r3, ede <xTaskResumeAll+0xce>
     eb0:	f240 0354 	movw	r3, #84	; 0x54
     eb4:	f2c1 0300 	movt	r3, #4096	; 0x1000
     eb8:	f8d3 30f8 	ldr.w	r3, [r3, #248]	; 0xf8
     ebc:	b17b      	cbz	r3, ede <xTaskResumeAll+0xce>
     ebe:	f240 0454 	movw	r4, #84	; 0x54
     ec2:	f2c1 0400 	movt	r4, #4096	; 0x1000
     ec6:	f7ff ff31 	bl	d2c <vTaskIncrementTick>
     eca:	f8d4 30f8 	ldr.w	r3, [r4, #248]	; 0xf8
     ece:	f103 33ff 	add.w	r3, r3, #4294967295
     ed2:	f8c4 30f8 	str.w	r3, [r4, #248]	; 0xf8
     ed6:	f8d4 30f8 	ldr.w	r3, [r4, #248]	; 0xf8
     eda:	2b00      	cmp	r3, #0
     edc:	d1f3      	bne.n	ec6 <xTaskResumeAll+0xb6>
     ede:	2f01      	cmp	r7, #1
     ee0:	d007      	beq.n	ef2 <xTaskResumeAll+0xe2>
     ee2:	f240 0354 	movw	r3, #84	; 0x54
     ee6:	f2c1 0300 	movt	r3, #4096	; 0x1000
     eea:	f8d3 30fc 	ldr.w	r3, [r3, #252]	; 0xfc
     eee:	2b01      	cmp	r3, #1
     ef0:	d10f      	bne.n	f12 <xTaskResumeAll+0x102>
     ef2:	f240 0354 	movw	r3, #84	; 0x54
     ef6:	f2c1 0300 	movt	r3, #4096	; 0x1000
     efa:	f04f 0200 	mov.w	r2, #0
     efe:	f8c3 20fc 	str.w	r2, [r3, #252]	; 0xfc
     f02:	f7ff fbe5 	bl	6d0 <vPortYieldFromISR>
     f06:	f04f 0401 	mov.w	r4, #1
     f0a:	e004      	b.n	f16 <xTaskResumeAll+0x106>
     f0c:	f04f 0400 	mov.w	r4, #0
     f10:	e001      	b.n	f16 <xTaskResumeAll+0x106>
     f12:	f04f 0400 	mov.w	r4, #0
     f16:	f7ff fbf1 	bl	6fc <vPortExitCritical>
     f1a:	4620      	mov	r0, r4
     f1c:	e8bd 81f0 	ldmia.w	sp!, {r4, r5, r6, r7, r8, pc}

00000f20 <prvIdleTask>:
     f20:	b508      	push	{r3, lr}
     f22:	f240 0454 	movw	r4, #84	; 0x54
     f26:	f2c1 0400 	movt	r4, #4096	; 0x1000
     f2a:	f04f 0600 	mov.w	r6, #0
     f2e:	f8d4 30e8 	ldr.w	r3, [r4, #232]	; 0xe8
     f32:	b333      	cbz	r3, f82 <prvIdleTask+0x62>
     f34:	f7ff fed2 	bl	cdc <vTaskSuspendAll>
     f38:	f8d4 50a8 	ldr.w	r5, [r4, #168]	; 0xa8
     f3c:	f7ff ff68 	bl	e10 <xTaskResumeAll>
     f40:	b1fd      	cbz	r5, f82 <prvIdleTask+0x62>
     f42:	f7ff fbcd 	bl	6e0 <vPortEnterCritical>
     f46:	f8d4 30a8 	ldr.w	r3, [r4, #168]	; 0xa8
     f4a:	b11b      	cbz	r3, f54 <prvIdleTask+0x34>
     f4c:	f8d4 30b4 	ldr.w	r3, [r4, #180]	; 0xb4
     f50:	68dd      	ldr	r5, [r3, #12]
     f52:	e000      	b.n	f56 <prvIdleTask+0x36>
     f54:	4635      	mov	r5, r6
     f56:	f105 0004 	add.w	r0, r5, #4
     f5a:	f000 fb7b 	bl	1654 <vListRemove>
     f5e:	6823      	ldr	r3, [r4, #0]
     f60:	f103 33ff 	add.w	r3, r3, #4294967295
     f64:	6023      	str	r3, [r4, #0]
     f66:	f8d4 30e8 	ldr.w	r3, [r4, #232]	; 0xe8
     f6a:	f103 33ff 	add.w	r3, r3, #4294967295
     f6e:	f8c4 30e8 	str.w	r3, [r4, #232]	; 0xe8
     f72:	f7ff fbc3 	bl	6fc <vPortExitCritical>
     f76:	6b28      	ldr	r0, [r5, #48]	; 0x30
     f78:	f000 fb04 	bl	1584 <vPortFree>
     f7c:	4628      	mov	r0, r5
     f7e:	f000 fb01 	bl	1584 <vPortFree>
     f82:	f7ff fba5 	bl	6d0 <vPortYieldFromISR>
     f86:	f7ff f9ef 	bl	368 <vApplicationIdleHook>
     f8a:	e7d0      	b.n	f2e <prvIdleTask+0xe>

00000f8c <vTaskDelay>:
     f8c:	b538      	push	{r3, r4, r5, lr}
     f8e:	4604      	mov	r4, r0
     f90:	b320      	cbz	r0, fdc <vTaskDelay+0x50>
     f92:	f7ff fea3 	bl	cdc <vTaskSuspendAll>
     f96:	f240 0554 	movw	r5, #84	; 0x54
     f9a:	f2c1 0500 	movt	r5, #4096	; 0x1000
     f9e:	f8d5 30f0 	ldr.w	r3, [r5, #240]	; 0xf0
     fa2:	18e4      	adds	r4, r4, r3
     fa4:	6868      	ldr	r0, [r5, #4]
     fa6:	f100 0004 	add.w	r0, r0, #4
     faa:	f000 fb53 	bl	1654 <vListRemove>
     fae:	686b      	ldr	r3, [r5, #4]
     fb0:	605c      	str	r4, [r3, #4]
     fb2:	f8d5 30f0 	ldr.w	r3, [r5, #240]	; 0xf0
     fb6:	429c      	cmp	r4, r3
     fb8:	f240 0354 	movw	r3, #84	; 0x54
     fbc:	bf39      	ittee	cc
     fbe:	462b      	movcc	r3, r5
     fc0:	f8d3 00d4 	ldrcc.w	r0, [r3, #212]	; 0xd4
     fc4:	f2c1 0300 	movtcs	r3, #4096	; 0x1000
     fc8:	f8d3 00d0 	ldrcs.w	r0, [r3, #208]	; 0xd0
     fcc:	6859      	ldr	r1, [r3, #4]
     fce:	f101 0104 	add.w	r1, r1, #4
     fd2:	f000 fb21 	bl	1618 <vListInsert>
     fd6:	f7ff ff1b 	bl	e10 <xTaskResumeAll>
     fda:	b908      	cbnz	r0, fe0 <vTaskDelay+0x54>
     fdc:	f7ff fb78 	bl	6d0 <vPortYieldFromISR>
     fe0:	bd38      	pop	{r3, r4, r5, pc}
     fe2:	bf00      	nop

00000fe4 <vTaskDelayUntil>:
     fe4:	b538      	push	{r3, r4, r5, lr}
     fe6:	4605      	mov	r5, r0
     fe8:	460c      	mov	r4, r1
     fea:	f7ff fe77 	bl	cdc <vTaskSuspendAll>
     fee:	682b      	ldr	r3, [r5, #0]
     ff0:	18e4      	adds	r4, r4, r3
     ff2:	f240 0254 	movw	r2, #84	; 0x54
     ff6:	f2c1 0200 	movt	r2, #4096	; 0x1000
     ffa:	f8d2 20f0 	ldr.w	r2, [r2, #240]	; 0xf0
     ffe:	4293      	cmp	r3, r2
    1000:	d90b      	bls.n	101a <vTaskDelayUntil+0x36>
    1002:	42a3      	cmp	r3, r4
    1004:	d939      	bls.n	107a <vTaskDelayUntil+0x96>
    1006:	f240 0354 	movw	r3, #84	; 0x54
    100a:	f2c1 0300 	movt	r3, #4096	; 0x1000
    100e:	f8d3 30f0 	ldr.w	r3, [r3, #240]	; 0xf0
    1012:	602c      	str	r4, [r5, #0]
    1014:	429c      	cmp	r4, r3
    1016:	d928      	bls.n	106a <vTaskDelayUntil+0x86>
    1018:	e00a      	b.n	1030 <vTaskDelayUntil+0x4c>
    101a:	42a3      	cmp	r3, r4
    101c:	d82b      	bhi.n	1076 <vTaskDelayUntil+0x92>
    101e:	f240 0354 	movw	r3, #84	; 0x54
    1022:	f2c1 0300 	movt	r3, #4096	; 0x1000
    1026:	f8d3 30f0 	ldr.w	r3, [r3, #240]	; 0xf0
    102a:	429c      	cmp	r4, r3
    102c:	d823      	bhi.n	1076 <vTaskDelayUntil+0x92>
    102e:	e024      	b.n	107a <vTaskDelayUntil+0x96>
    1030:	f240 0554 	movw	r5, #84	; 0x54
    1034:	f2c1 0500 	movt	r5, #4096	; 0x1000
    1038:	6868      	ldr	r0, [r5, #4]
    103a:	f100 0004 	add.w	r0, r0, #4
    103e:	f000 fb09 	bl	1654 <vListRemove>
    1042:	686b      	ldr	r3, [r5, #4]
    1044:	605c      	str	r4, [r3, #4]
    1046:	f8d5 30f0 	ldr.w	r3, [r5, #240]	; 0xf0
    104a:	429c      	cmp	r4, r3
    104c:	f240 0354 	movw	r3, #84	; 0x54
    1050:	bf39      	ittee	cc
    1052:	462b      	movcc	r3, r5
    1054:	f8d3 00d4 	ldrcc.w	r0, [r3, #212]	; 0xd4
    1058:	f2c1 0300 	movtcs	r3, #4096	; 0x1000
    105c:	f8d3 00d0 	ldrcs.w	r0, [r3, #208]	; 0xd0
    1060:	6859      	ldr	r1, [r3, #4]
    1062:	f101 0104 	add.w	r1, r1, #4
    1066:	f000 fad7 	bl	1618 <vListInsert>
    106a:	f7ff fed1 	bl	e10 <xTaskResumeAll>
    106e:	b930      	cbnz	r0, 107e <vTaskDelayUntil+0x9a>
    1070:	f7ff fb2e 	bl	6d0 <vPortYieldFromISR>
    1074:	bd38      	pop	{r3, r4, r5, pc}
    1076:	602c      	str	r4, [r5, #0]
    1078:	e7da      	b.n	1030 <vTaskDelayUntil+0x4c>
    107a:	602c      	str	r4, [r5, #0]
    107c:	e7f5      	b.n	106a <vTaskDelayUntil+0x86>
    107e:	bd38      	pop	{r3, r4, r5, pc}

00001080 <vTaskSwitchContext>:
    1080:	b508      	push	{r3, lr}
    1082:	f240 0354 	movw	r3, #84	; 0x54
    1086:	f2c1 0300 	movt	r3, #4096	; 0x1000
    108a:	f8d3 30ec 	ldr.w	r3, [r3, #236]	; 0xec
    108e:	b143      	cbz	r3, 10a2 <vTaskSwitchContext+0x22>
    1090:	f240 0354 	movw	r3, #84	; 0x54
    1094:	f2c1 0300 	movt	r3, #4096	; 0x1000
    1098:	f04f 0201 	mov.w	r2, #1
    109c:	f8c3 20fc 	str.w	r2, [r3, #252]	; 0xfc
    10a0:	bd08      	pop	{r3, pc}
    10a2:	f240 0354 	movw	r3, #84	; 0x54
    10a6:	f2c1 0300 	movt	r3, #4096	; 0x1000
    10aa:	685a      	ldr	r2, [r3, #4]
    10ac:	685b      	ldr	r3, [r3, #4]
    10ae:	6812      	ldr	r2, [r2, #0]
    10b0:	6b1b      	ldr	r3, [r3, #48]	; 0x30
    10b2:	429a      	cmp	r2, r3
    10b4:	d809      	bhi.n	10ca <vTaskSwitchContext+0x4a>
    10b6:	f240 0354 	movw	r3, #84	; 0x54
    10ba:	f2c1 0300 	movt	r3, #4096	; 0x1000
    10be:	6858      	ldr	r0, [r3, #4]
    10c0:	6859      	ldr	r1, [r3, #4]
    10c2:	f101 0134 	add.w	r1, r1, #52	; 0x34
    10c6:	f7ff f949 	bl	35c <vApplicationStackOverflowHook>
    10ca:	f240 0354 	movw	r3, #84	; 0x54
    10ce:	f2c1 0300 	movt	r3, #4096	; 0x1000
    10d2:	685b      	ldr	r3, [r3, #4]
    10d4:	6b18      	ldr	r0, [r3, #48]	; 0x30
    10d6:	f643 71e8 	movw	r1, #16360	; 0x3fe8
    10da:	f2c0 0100 	movt	r1, #0
    10de:	f04f 0214 	mov.w	r2, #20
    10e2:	f001 f833 	bl	214c <memcmp>
    10e6:	b148      	cbz	r0, 10fc <vTaskSwitchContext+0x7c>
    10e8:	f240 0354 	movw	r3, #84	; 0x54
    10ec:	f2c1 0300 	movt	r3, #4096	; 0x1000
    10f0:	6858      	ldr	r0, [r3, #4]
    10f2:	6859      	ldr	r1, [r3, #4]
    10f4:	f101 0134 	add.w	r1, r1, #52	; 0x34
    10f8:	f7ff f930 	bl	35c <vApplicationStackOverflowHook>
    10fc:	f240 0354 	movw	r3, #84	; 0x54
    1100:	f2c1 0300 	movt	r3, #4096	; 0x1000
    1104:	f8d3 20e4 	ldr.w	r2, [r3, #228]	; 0xe4
    1108:	f103 0308 	add.w	r3, r3, #8
    110c:	eb02 0282 	add.w	r2, r2, r2, lsl #2
    1110:	ea4f 0282 	mov.w	r2, r2, lsl #2
    1114:	589b      	ldr	r3, [r3, r2]
    1116:	b99b      	cbnz	r3, 1140 <vTaskSwitchContext+0xc0>
    1118:	f240 0354 	movw	r3, #84	; 0x54
    111c:	f2c1 0300 	movt	r3, #4096	; 0x1000
    1120:	f103 0108 	add.w	r1, r3, #8
    1124:	f8d3 20e4 	ldr.w	r2, [r3, #228]	; 0xe4
    1128:	f102 32ff 	add.w	r2, r2, #4294967295
    112c:	f8c3 20e4 	str.w	r2, [r3, #228]	; 0xe4
    1130:	f8d3 20e4 	ldr.w	r2, [r3, #228]	; 0xe4
    1134:	eb02 0282 	add.w	r2, r2, r2, lsl #2
    1138:	f851 2022 	ldr.w	r2, [r1, r2, lsl #2]
    113c:	2a00      	cmp	r2, #0
    113e:	d0f1      	beq.n	1124 <vTaskSwitchContext+0xa4>
    1140:	f240 0254 	movw	r2, #84	; 0x54
    1144:	f2c1 0200 	movt	r2, #4096	; 0x1000
    1148:	f8d2 10e4 	ldr.w	r1, [r2, #228]	; 0xe4
    114c:	f102 0208 	add.w	r2, r2, #8
    1150:	eb01 0181 	add.w	r1, r1, r1, lsl #2
    1154:	eb02 0381 	add.w	r3, r2, r1, lsl #2
    1158:	685a      	ldr	r2, [r3, #4]
    115a:	6852      	ldr	r2, [r2, #4]
    115c:	605a      	str	r2, [r3, #4]
    115e:	f103 0108 	add.w	r1, r3, #8
    1162:	428a      	cmp	r2, r1
    1164:	bf04      	itt	eq
    1166:	6852      	ldreq	r2, [r2, #4]
    1168:	605a      	streq	r2, [r3, #4]
    116a:	685b      	ldr	r3, [r3, #4]
    116c:	68da      	ldr	r2, [r3, #12]
    116e:	f240 0354 	movw	r3, #84	; 0x54
    1172:	f2c1 0300 	movt	r3, #4096	; 0x1000
    1176:	605a      	str	r2, [r3, #4]
    1178:	bd08      	pop	{r3, pc}
    117a:	bf00      	nop

0000117c <vTaskSuspend>:
    117c:	b570      	push	{r4, r5, r6, lr}
    117e:	4604      	mov	r4, r0
    1180:	f7ff faae 	bl	6e0 <vPortEnterCritical>
    1184:	f240 0354 	movw	r3, #84	; 0x54
    1188:	f2c1 0300 	movt	r3, #4096	; 0x1000
    118c:	685b      	ldr	r3, [r3, #4]
    118e:	429c      	cmp	r4, r3
    1190:	d001      	beq.n	1196 <vTaskSuspend+0x1a>
    1192:	b944      	cbnz	r4, 11a6 <vTaskSuspend+0x2a>
    1194:	e001      	b.n	119a <vTaskSuspend+0x1e>
    1196:	f04f 0400 	mov.w	r4, #0
    119a:	f240 0354 	movw	r3, #84	; 0x54
    119e:	f2c1 0300 	movt	r3, #4096	; 0x1000
    11a2:	685d      	ldr	r5, [r3, #4]
    11a4:	e000      	b.n	11a8 <vTaskSuspend+0x2c>
    11a6:	4625      	mov	r5, r4
    11a8:	f105 0604 	add.w	r6, r5, #4
    11ac:	4630      	mov	r0, r6
    11ae:	f000 fa51 	bl	1654 <vListRemove>
    11b2:	6aab      	ldr	r3, [r5, #40]	; 0x28
    11b4:	b11b      	cbz	r3, 11be <vTaskSuspend+0x42>
    11b6:	f105 0018 	add.w	r0, r5, #24
    11ba:	f000 fa4b 	bl	1654 <vListRemove>
    11be:	4811      	ldr	r0, [pc, #68]	; (1204 <vTaskSuspend+0x88>)
    11c0:	4631      	mov	r1, r6
    11c2:	f000 fa19 	bl	15f8 <vListInsertEnd>
    11c6:	f7ff fa99 	bl	6fc <vPortExitCritical>
    11ca:	b9d4      	cbnz	r4, 1202 <vTaskSuspend+0x86>
    11cc:	f240 0354 	movw	r3, #84	; 0x54
    11d0:	f2c1 0300 	movt	r3, #4096	; 0x1000
    11d4:	f8d3 30d8 	ldr.w	r3, [r3, #216]	; 0xd8
    11d8:	b113      	cbz	r3, 11e0 <vTaskSuspend+0x64>
    11da:	f7ff fa79 	bl	6d0 <vPortYieldFromISR>
    11de:	bd70      	pop	{r4, r5, r6, pc}
    11e0:	f240 0354 	movw	r3, #84	; 0x54
    11e4:	f2c1 0300 	movt	r3, #4096	; 0x1000
    11e8:	681b      	ldr	r3, [r3, #0]
    11ea:	2b01      	cmp	r3, #1
    11ec:	d107      	bne.n	11fe <vTaskSuspend+0x82>
    11ee:	f240 0354 	movw	r3, #84	; 0x54
    11f2:	f2c1 0300 	movt	r3, #4096	; 0x1000
    11f6:	f04f 0200 	mov.w	r2, #0
    11fa:	605a      	str	r2, [r3, #4]
    11fc:	bd70      	pop	{r4, r5, r6, pc}
    11fe:	f7ff ff3f 	bl	1080 <vTaskSwitchContext>
    1202:	bd70      	pop	{r4, r5, r6, pc}
    1204:	10000110 	.word	0x10000110

00001208 <vTaskPlaceOnEventList>:
    1208:	b538      	push	{r3, r4, r5, lr}
    120a:	460d      	mov	r5, r1
    120c:	f240 0454 	movw	r4, #84	; 0x54
    1210:	f2c1 0400 	movt	r4, #4096	; 0x1000
    1214:	6861      	ldr	r1, [r4, #4]
    1216:	f101 0118 	add.w	r1, r1, #24
    121a:	f000 f9fd 	bl	1618 <vListInsert>
    121e:	6860      	ldr	r0, [r4, #4]
    1220:	f100 0004 	add.w	r0, r0, #4
    1224:	f000 fa16 	bl	1654 <vListRemove>
    1228:	f1b5 3fff 	cmp.w	r5, #4294967295
    122c:	d107      	bne.n	123e <vTaskPlaceOnEventList+0x36>
    122e:	6861      	ldr	r1, [r4, #4]
    1230:	f104 00bc 	add.w	r0, r4, #188	; 0xbc
    1234:	f101 0104 	add.w	r1, r1, #4
    1238:	f000 f9de 	bl	15f8 <vListInsertEnd>
    123c:	bd38      	pop	{r3, r4, r5, pc}
    123e:	f240 0354 	movw	r3, #84	; 0x54
    1242:	f2c1 0300 	movt	r3, #4096	; 0x1000
    1246:	f8d3 20f0 	ldr.w	r2, [r3, #240]	; 0xf0
    124a:	18ad      	adds	r5, r5, r2
    124c:	685a      	ldr	r2, [r3, #4]
    124e:	6055      	str	r5, [r2, #4]
    1250:	f8d3 30f0 	ldr.w	r3, [r3, #240]	; 0xf0
    1254:	429d      	cmp	r5, r3
    1256:	f240 0354 	movw	r3, #84	; 0x54
    125a:	f2c1 0300 	movt	r3, #4096	; 0x1000
    125e:	bf34      	ite	cc
    1260:	f8d3 00d4 	ldrcc.w	r0, [r3, #212]	; 0xd4
    1264:	f8d3 00d0 	ldrcs.w	r0, [r3, #208]	; 0xd0
    1268:	6859      	ldr	r1, [r3, #4]
    126a:	f101 0104 	add.w	r1, r1, #4
    126e:	f000 f9d3 	bl	1618 <vListInsert>
    1272:	bd38      	pop	{r3, r4, r5, pc}

00001274 <xTaskRemoveFromEventList>:
    1274:	b538      	push	{r3, r4, r5, lr}
    1276:	6803      	ldr	r3, [r0, #0]
    1278:	b113      	cbz	r3, 1280 <xTaskRemoveFromEventList+0xc>
    127a:	68c3      	ldr	r3, [r0, #12]
    127c:	68dc      	ldr	r4, [r3, #12]
    127e:	e001      	b.n	1284 <xTaskRemoveFromEventList+0x10>
    1280:	f04f 0400 	mov.w	r4, #0
    1284:	f104 0518 	add.w	r5, r4, #24
    1288:	4628      	mov	r0, r5
    128a:	f000 f9e3 	bl	1654 <vListRemove>
    128e:	f240 0354 	movw	r3, #84	; 0x54
    1292:	f2c1 0300 	movt	r3, #4096	; 0x1000
    1296:	f8d3 30ec 	ldr.w	r3, [r3, #236]	; 0xec
    129a:	b9e3      	cbnz	r3, 12d6 <xTaskRemoveFromEventList+0x62>
    129c:	f104 0504 	add.w	r5, r4, #4
    12a0:	4628      	mov	r0, r5
    12a2:	f000 f9d7 	bl	1654 <vListRemove>
    12a6:	6ae0      	ldr	r0, [r4, #44]	; 0x2c
    12a8:	f240 0354 	movw	r3, #84	; 0x54
    12ac:	f2c1 0300 	movt	r3, #4096	; 0x1000
    12b0:	f8d3 30e4 	ldr.w	r3, [r3, #228]	; 0xe4
    12b4:	4298      	cmp	r0, r3
    12b6:	d905      	bls.n	12c4 <xTaskRemoveFromEventList+0x50>
    12b8:	f240 0354 	movw	r3, #84	; 0x54
    12bc:	f2c1 0300 	movt	r3, #4096	; 0x1000
    12c0:	f8c3 00e4 	str.w	r0, [r3, #228]	; 0xe4
    12c4:	eb00 0080 	add.w	r0, r0, r0, lsl #2
    12c8:	4b0b      	ldr	r3, [pc, #44]	; (12f8 <xTaskRemoveFromEventList+0x84>)
    12ca:	eb03 0080 	add.w	r0, r3, r0, lsl #2
    12ce:	4629      	mov	r1, r5
    12d0:	f000 f992 	bl	15f8 <vListInsertEnd>
    12d4:	e003      	b.n	12de <xTaskRemoveFromEventList+0x6a>
    12d6:	4809      	ldr	r0, [pc, #36]	; (12fc <xTaskRemoveFromEventList+0x88>)
    12d8:	4629      	mov	r1, r5
    12da:	f000 f98d 	bl	15f8 <vListInsertEnd>
    12de:	f240 0354 	movw	r3, #84	; 0x54
    12e2:	f2c1 0300 	movt	r3, #4096	; 0x1000
    12e6:	685b      	ldr	r3, [r3, #4]
    12e8:	6ae0      	ldr	r0, [r4, #44]	; 0x2c
    12ea:	6adb      	ldr	r3, [r3, #44]	; 0x2c
    12ec:	4298      	cmp	r0, r3
    12ee:	bf34      	ite	cc
    12f0:	2000      	movcc	r0, #0
    12f2:	2001      	movcs	r0, #1
    12f4:	bd38      	pop	{r3, r4, r5, pc}
    12f6:	bf00      	nop
    12f8:	1000005c 	.word	0x1000005c
    12fc:	100000e8 	.word	0x100000e8

00001300 <vTaskSetTimeOutState>:
    1300:	f240 0354 	movw	r3, #84	; 0x54
    1304:	f2c1 0300 	movt	r3, #4096	; 0x1000
    1308:	f8d3 20f4 	ldr.w	r2, [r3, #244]	; 0xf4
    130c:	6002      	str	r2, [r0, #0]
    130e:	f8d3 30f0 	ldr.w	r3, [r3, #240]	; 0xf0
    1312:	6043      	str	r3, [r0, #4]
    1314:	4770      	bx	lr
    1316:	bf00      	nop

00001318 <xTaskCheckForTimeOut>:
    1318:	b538      	push	{r3, r4, r5, lr}
    131a:	4604      	mov	r4, r0
    131c:	460d      	mov	r5, r1
    131e:	f7ff f9df 	bl	6e0 <vPortEnterCritical>
    1322:	682a      	ldr	r2, [r5, #0]
    1324:	f1b2 3fff 	cmp.w	r2, #4294967295
    1328:	d02a      	beq.n	1380 <xTaskCheckForTimeOut+0x68>
    132a:	f240 0354 	movw	r3, #84	; 0x54
    132e:	f2c1 0300 	movt	r3, #4096	; 0x1000
    1332:	f8d3 30f4 	ldr.w	r3, [r3, #244]	; 0xf4
    1336:	6821      	ldr	r1, [r4, #0]
    1338:	4299      	cmp	r1, r3
    133a:	d008      	beq.n	134e <xTaskCheckForTimeOut+0x36>
    133c:	f240 0354 	movw	r3, #84	; 0x54
    1340:	f2c1 0300 	movt	r3, #4096	; 0x1000
    1344:	f8d3 30f0 	ldr.w	r3, [r3, #240]	; 0xf0
    1348:	6861      	ldr	r1, [r4, #4]
    134a:	4299      	cmp	r1, r3
    134c:	d91b      	bls.n	1386 <xTaskCheckForTimeOut+0x6e>
    134e:	f240 0354 	movw	r3, #84	; 0x54
    1352:	f2c1 0300 	movt	r3, #4096	; 0x1000
    1356:	f8d3 10f0 	ldr.w	r1, [r3, #240]	; 0xf0
    135a:	6863      	ldr	r3, [r4, #4]
    135c:	1ac9      	subs	r1, r1, r3
    135e:	428a      	cmp	r2, r1
    1360:	d914      	bls.n	138c <xTaskCheckForTimeOut+0x74>
    1362:	f240 0154 	movw	r1, #84	; 0x54
    1366:	f2c1 0100 	movt	r1, #4096	; 0x1000
    136a:	f8d1 10f0 	ldr.w	r1, [r1, #240]	; 0xf0
    136e:	1a5b      	subs	r3, r3, r1
    1370:	189a      	adds	r2, r3, r2
    1372:	602a      	str	r2, [r5, #0]
    1374:	4620      	mov	r0, r4
    1376:	f7ff ffc3 	bl	1300 <vTaskSetTimeOutState>
    137a:	f04f 0400 	mov.w	r4, #0
    137e:	e007      	b.n	1390 <xTaskCheckForTimeOut+0x78>
    1380:	f04f 0400 	mov.w	r4, #0
    1384:	e004      	b.n	1390 <xTaskCheckForTimeOut+0x78>
    1386:	f04f 0401 	mov.w	r4, #1
    138a:	e001      	b.n	1390 <xTaskCheckForTimeOut+0x78>
    138c:	f04f 0401 	mov.w	r4, #1
    1390:	f7ff f9b4 	bl	6fc <vPortExitCritical>
    1394:	4620      	mov	r0, r4
    1396:	bd38      	pop	{r3, r4, r5, pc}

00001398 <vTaskMissedYield>:
    1398:	f240 0354 	movw	r3, #84	; 0x54
    139c:	f2c1 0300 	movt	r3, #4096	; 0x1000
    13a0:	f04f 0201 	mov.w	r2, #1
    13a4:	f8c3 20fc 	str.w	r2, [r3, #252]	; 0xfc
    13a8:	4770      	bx	lr
    13aa:	bf00      	nop

000013ac <xTaskGetCurrentTaskHandle>:
    13ac:	f240 0354 	movw	r3, #84	; 0x54
    13b0:	f2c1 0300 	movt	r3, #4096	; 0x1000
    13b4:	6858      	ldr	r0, [r3, #4]
    13b6:	4770      	bx	lr

000013b8 <vTaskPriorityInherit>:
    13b8:	b538      	push	{r3, r4, r5, lr}
    13ba:	4604      	mov	r4, r0
    13bc:	6ac2      	ldr	r2, [r0, #44]	; 0x2c
    13be:	f240 0354 	movw	r3, #84	; 0x54
    13c2:	f2c1 0300 	movt	r3, #4096	; 0x1000
    13c6:	685b      	ldr	r3, [r3, #4]
    13c8:	6adb      	ldr	r3, [r3, #44]	; 0x2c
    13ca:	429a      	cmp	r2, r3
    13cc:	d237      	bcs.n	143e <vTaskPriorityInherit+0x86>
    13ce:	f240 0354 	movw	r3, #84	; 0x54
    13d2:	f2c1 0300 	movt	r3, #4096	; 0x1000
    13d6:	6859      	ldr	r1, [r3, #4]
    13d8:	6ac9      	ldr	r1, [r1, #44]	; 0x2c
    13da:	f1c1 0105 	rsb	r1, r1, #5
    13de:	6181      	str	r1, [r0, #24]
    13e0:	f103 0308 	add.w	r3, r3, #8
    13e4:	eb02 0282 	add.w	r2, r2, r2, lsl #2
    13e8:	eb03 0282 	add.w	r2, r3, r2, lsl #2
    13ec:	6943      	ldr	r3, [r0, #20]
    13ee:	4293      	cmp	r3, r2
    13f0:	d11e      	bne.n	1430 <vTaskPriorityInherit+0x78>
    13f2:	f100 0504 	add.w	r5, r0, #4
    13f6:	4628      	mov	r0, r5
    13f8:	f000 f92c 	bl	1654 <vListRemove>
    13fc:	f240 0254 	movw	r2, #84	; 0x54
    1400:	f2c1 0200 	movt	r2, #4096	; 0x1000
    1404:	6853      	ldr	r3, [r2, #4]
    1406:	6adb      	ldr	r3, [r3, #44]	; 0x2c
    1408:	62e3      	str	r3, [r4, #44]	; 0x2c
    140a:	f8d2 20e4 	ldr.w	r2, [r2, #228]	; 0xe4
    140e:	4293      	cmp	r3, r2
    1410:	d905      	bls.n	141e <vTaskPriorityInherit+0x66>
    1412:	f240 0254 	movw	r2, #84	; 0x54
    1416:	f2c1 0200 	movt	r2, #4096	; 0x1000
    141a:	f8c2 30e4 	str.w	r3, [r2, #228]	; 0xe4
    141e:	eb03 0383 	add.w	r3, r3, r3, lsl #2
    1422:	4a07      	ldr	r2, [pc, #28]	; (1440 <vTaskPriorityInherit+0x88>)
    1424:	eb02 0083 	add.w	r0, r2, r3, lsl #2
    1428:	4629      	mov	r1, r5
    142a:	f000 f8e5 	bl	15f8 <vListInsertEnd>
    142e:	bd38      	pop	{r3, r4, r5, pc}
    1430:	f240 0354 	movw	r3, #84	; 0x54
    1434:	f2c1 0300 	movt	r3, #4096	; 0x1000
    1438:	685b      	ldr	r3, [r3, #4]
    143a:	6adb      	ldr	r3, [r3, #44]	; 0x2c
    143c:	62c3      	str	r3, [r0, #44]	; 0x2c
    143e:	bd38      	pop	{r3, r4, r5, pc}
    1440:	1000005c 	.word	0x1000005c

00001444 <vTaskPriorityDisinherit>:
    1444:	b538      	push	{r3, r4, r5, lr}
    1446:	4604      	mov	r4, r0
    1448:	b318      	cbz	r0, 1492 <vTaskPriorityDisinherit+0x4e>
    144a:	6ac2      	ldr	r2, [r0, #44]	; 0x2c
    144c:	6c03      	ldr	r3, [r0, #64]	; 0x40
    144e:	429a      	cmp	r2, r3
    1450:	d01f      	beq.n	1492 <vTaskPriorityDisinherit+0x4e>
    1452:	f100 0504 	add.w	r5, r0, #4
    1456:	4628      	mov	r0, r5
    1458:	f000 f8fc 	bl	1654 <vListRemove>
    145c:	6c20      	ldr	r0, [r4, #64]	; 0x40
    145e:	62e0      	str	r0, [r4, #44]	; 0x2c
    1460:	f1c0 0305 	rsb	r3, r0, #5
    1464:	61a3      	str	r3, [r4, #24]
    1466:	f240 0354 	movw	r3, #84	; 0x54
    146a:	f2c1 0300 	movt	r3, #4096	; 0x1000
    146e:	f8d3 30e4 	ldr.w	r3, [r3, #228]	; 0xe4
    1472:	4298      	cmp	r0, r3
    1474:	d905      	bls.n	1482 <vTaskPriorityDisinherit+0x3e>
    1476:	f240 0354 	movw	r3, #84	; 0x54
    147a:	f2c1 0300 	movt	r3, #4096	; 0x1000
    147e:	f8c3 00e4 	str.w	r0, [r3, #228]	; 0xe4
    1482:	eb00 0080 	add.w	r0, r0, r0, lsl #2
    1486:	4b03      	ldr	r3, [pc, #12]	; (1494 <vTaskPriorityDisinherit+0x50>)
    1488:	eb03 0080 	add.w	r0, r3, r0, lsl #2
    148c:	4629      	mov	r1, r5
    148e:	f000 f8b3 	bl	15f8 <vListInsertEnd>
    1492:	bd38      	pop	{r3, r4, r5, pc}
    1494:	1000005c 	.word	0x1000005c

00001498 <pvPortMalloc>:
    1498:	b570      	push	{r4, r5, r6, lr}
    149a:	4604      	mov	r4, r0
    149c:	f7ff fc1e 	bl	cdc <vTaskSuspendAll>
    14a0:	f240 1358 	movw	r3, #344	; 0x158
    14a4:	f2c1 0300 	movt	r3, #4096	; 0x1000
    14a8:	689b      	ldr	r3, [r3, #8]
    14aa:	b9d3      	cbnz	r3, 14e2 <pvPortMalloc+0x4a>
    14ac:	f240 1358 	movw	r3, #344	; 0x158
    14b0:	f2c1 0300 	movt	r3, #4096	; 0x1000
    14b4:	f103 0210 	add.w	r2, r3, #16
    14b8:	601a      	str	r2, [r3, #0]
    14ba:	f04f 0000 	mov.w	r0, #0
    14be:	6058      	str	r0, [r3, #4]
    14c0:	f242 3248 	movw	r2, #9032	; 0x2348
    14c4:	f2c1 0200 	movt	r2, #4096	; 0x1000
    14c8:	f44f 5120 	mov.w	r1, #10240	; 0x2800
    14cc:	f8c2 1624 	str.w	r1, [r2, #1572]	; 0x624
    14d0:	f8c2 0620 	str.w	r0, [r2, #1568]	; 0x620
    14d4:	6159      	str	r1, [r3, #20]
    14d6:	f502 62c4 	add.w	r2, r2, #1568	; 0x620
    14da:	611a      	str	r2, [r3, #16]
    14dc:	f04f 0201 	mov.w	r2, #1
    14e0:	609a      	str	r2, [r3, #8]
    14e2:	2c00      	cmp	r4, #0
    14e4:	d046      	beq.n	1574 <pvPortMalloc+0xdc>
    14e6:	f104 0110 	add.w	r1, r4, #16
    14ea:	f011 0f07 	tst.w	r1, #7
    14ee:	bf1c      	itt	ne
    14f0:	f021 0107 	bicne.w	r1, r1, #7
    14f4:	3108      	addne	r1, #8
    14f6:	f101 32ff 	add.w	r2, r1, #4294967295
    14fa:	f242 73fe 	movw	r3, #10238	; 0x27fe
    14fe:	429a      	cmp	r2, r3
    1500:	d838      	bhi.n	1574 <pvPortMalloc+0xdc>
    1502:	f240 1058 	movw	r0, #344	; 0x158
    1506:	f2c1 0000 	movt	r0, #4096	; 0x1000
    150a:	6803      	ldr	r3, [r0, #0]
    150c:	e001      	b.n	1512 <pvPortMalloc+0x7a>
    150e:	4618      	mov	r0, r3
    1510:	4613      	mov	r3, r2
    1512:	685a      	ldr	r2, [r3, #4]
    1514:	4291      	cmp	r1, r2
    1516:	d902      	bls.n	151e <pvPortMalloc+0x86>
    1518:	681a      	ldr	r2, [r3, #0]
    151a:	2a00      	cmp	r2, #0
    151c:	d1f7      	bne.n	150e <pvPortMalloc+0x76>
    151e:	4a18      	ldr	r2, [pc, #96]	; (1580 <pvPortMalloc+0xe8>)
    1520:	4293      	cmp	r3, r2
    1522:	d027      	beq.n	1574 <pvPortMalloc+0xdc>
    1524:	6804      	ldr	r4, [r0, #0]
    1526:	f104 0410 	add.w	r4, r4, #16
    152a:	681a      	ldr	r2, [r3, #0]
    152c:	6002      	str	r2, [r0, #0]
    152e:	685a      	ldr	r2, [r3, #4]
    1530:	1a52      	subs	r2, r2, r1
    1532:	2a20      	cmp	r2, #32
    1534:	d90f      	bls.n	1556 <pvPortMalloc+0xbe>
    1536:	185e      	adds	r6, r3, r1
    1538:	6072      	str	r2, [r6, #4]
    153a:	6059      	str	r1, [r3, #4]
    153c:	6875      	ldr	r5, [r6, #4]
    153e:	f240 1158 	movw	r1, #344	; 0x158
    1542:	f2c1 0100 	movt	r1, #4096	; 0x1000
    1546:	e000      	b.n	154a <pvPortMalloc+0xb2>
    1548:	4611      	mov	r1, r2
    154a:	680a      	ldr	r2, [r1, #0]
    154c:	6850      	ldr	r0, [r2, #4]
    154e:	4285      	cmp	r5, r0
    1550:	d8fa      	bhi.n	1548 <pvPortMalloc+0xb0>
    1552:	6032      	str	r2, [r6, #0]
    1554:	600e      	str	r6, [r1, #0]
    1556:	f240 0214 	movw	r2, #20
    155a:	f2c1 0200 	movt	r2, #4096	; 0x1000
    155e:	6811      	ldr	r1, [r2, #0]
    1560:	685b      	ldr	r3, [r3, #4]
    1562:	1acb      	subs	r3, r1, r3
    1564:	6013      	str	r3, [r2, #0]
    1566:	f7ff fc53 	bl	e10 <xTaskResumeAll>
    156a:	b90c      	cbnz	r4, 1570 <pvPortMalloc+0xd8>
    156c:	f7fe fef2 	bl	354 <vApplicationMallocFailedHook>
    1570:	4620      	mov	r0, r4
    1572:	bd70      	pop	{r4, r5, r6, pc}
    1574:	f7ff fc4c 	bl	e10 <xTaskResumeAll>
    1578:	f04f 0400 	mov.w	r4, #0
    157c:	e7f6      	b.n	156c <pvPortMalloc+0xd4>
    157e:	bf00      	nop
    1580:	10002968 	.word	0x10002968

00001584 <vPortFree>:
    1584:	b538      	push	{r3, r4, r5, lr}
    1586:	4604      	mov	r4, r0
    1588:	b1e8      	cbz	r0, 15c6 <vPortFree+0x42>
    158a:	f1a0 0510 	sub.w	r5, r0, #16
    158e:	f7ff fba5 	bl	cdc <vTaskSuspendAll>
    1592:	f854 0c0c 	ldr.w	r0, [r4, #-12]
    1596:	f240 1258 	movw	r2, #344	; 0x158
    159a:	f2c1 0200 	movt	r2, #4096	; 0x1000
    159e:	e000      	b.n	15a2 <vPortFree+0x1e>
    15a0:	461a      	mov	r2, r3
    15a2:	6813      	ldr	r3, [r2, #0]
    15a4:	6859      	ldr	r1, [r3, #4]
    15a6:	4288      	cmp	r0, r1
    15a8:	d8fa      	bhi.n	15a0 <vPortFree+0x1c>
    15aa:	f844 3c10 	str.w	r3, [r4, #-16]
    15ae:	6015      	str	r5, [r2, #0]
    15b0:	f240 0314 	movw	r3, #20
    15b4:	f2c1 0300 	movt	r3, #4096	; 0x1000
    15b8:	6819      	ldr	r1, [r3, #0]
    15ba:	f854 2c0c 	ldr.w	r2, [r4, #-12]
    15be:	188a      	adds	r2, r1, r2
    15c0:	601a      	str	r2, [r3, #0]
    15c2:	f7ff fc25 	bl	e10 <xTaskResumeAll>
    15c6:	bd38      	pop	{r3, r4, r5, pc}

000015c8 <xPortGetFreeHeapSize>:
    15c8:	f240 0314 	movw	r3, #20
    15cc:	f2c1 0300 	movt	r3, #4096	; 0x1000
    15d0:	6818      	ldr	r0, [r3, #0]
    15d2:	4770      	bx	lr

000015d4 <vPortInitialiseBlocks>:
    15d4:	4770      	bx	lr
    15d6:	bf00      	nop

000015d8 <vListInitialise>:
    15d8:	f100 0308 	add.w	r3, r0, #8
    15dc:	6043      	str	r3, [r0, #4]
    15de:	f04f 32ff 	mov.w	r2, #4294967295
    15e2:	6082      	str	r2, [r0, #8]
    15e4:	60c3      	str	r3, [r0, #12]
    15e6:	6103      	str	r3, [r0, #16]
    15e8:	f04f 0300 	mov.w	r3, #0
    15ec:	6003      	str	r3, [r0, #0]
    15ee:	4770      	bx	lr

000015f0 <vListInitialiseItem>:
    15f0:	f04f 0300 	mov.w	r3, #0
    15f4:	6103      	str	r3, [r0, #16]
    15f6:	4770      	bx	lr

000015f8 <vListInsertEnd>:
    15f8:	6843      	ldr	r3, [r0, #4]
    15fa:	685a      	ldr	r2, [r3, #4]
    15fc:	604a      	str	r2, [r1, #4]
    15fe:	6842      	ldr	r2, [r0, #4]
    1600:	608a      	str	r2, [r1, #8]
    1602:	685a      	ldr	r2, [r3, #4]
    1604:	6091      	str	r1, [r2, #8]
    1606:	6059      	str	r1, [r3, #4]
    1608:	6041      	str	r1, [r0, #4]
    160a:	6108      	str	r0, [r1, #16]
    160c:	6803      	ldr	r3, [r0, #0]
    160e:	f103 0301 	add.w	r3, r3, #1
    1612:	6003      	str	r3, [r0, #0]
    1614:	4770      	bx	lr
    1616:	bf00      	nop

00001618 <vListInsert>:
    1618:	b410      	push	{r4}
    161a:	680c      	ldr	r4, [r1, #0]
    161c:	f1b4 3fff 	cmp.w	r4, #4294967295
    1620:	d101      	bne.n	1626 <vListInsert+0xe>
    1622:	6903      	ldr	r3, [r0, #16]
    1624:	e00a      	b.n	163c <vListInsert+0x24>
    1626:	f100 0308 	add.w	r3, r0, #8
    162a:	68c2      	ldr	r2, [r0, #12]
    162c:	6812      	ldr	r2, [r2, #0]
    162e:	4294      	cmp	r4, r2
    1630:	d304      	bcc.n	163c <vListInsert+0x24>
    1632:	685b      	ldr	r3, [r3, #4]
    1634:	685a      	ldr	r2, [r3, #4]
    1636:	6812      	ldr	r2, [r2, #0]
    1638:	4294      	cmp	r4, r2
    163a:	d2fa      	bcs.n	1632 <vListInsert+0x1a>
    163c:	685a      	ldr	r2, [r3, #4]
    163e:	604a      	str	r2, [r1, #4]
    1640:	6091      	str	r1, [r2, #8]
    1642:	608b      	str	r3, [r1, #8]
    1644:	6059      	str	r1, [r3, #4]
    1646:	6108      	str	r0, [r1, #16]
    1648:	6803      	ldr	r3, [r0, #0]
    164a:	f103 0301 	add.w	r3, r3, #1
    164e:	6003      	str	r3, [r0, #0]
    1650:	bc10      	pop	{r4}
    1652:	4770      	bx	lr

00001654 <vListRemove>:
    1654:	6843      	ldr	r3, [r0, #4]
    1656:	6882      	ldr	r2, [r0, #8]
    1658:	609a      	str	r2, [r3, #8]
    165a:	6883      	ldr	r3, [r0, #8]
    165c:	6842      	ldr	r2, [r0, #4]
    165e:	605a      	str	r2, [r3, #4]
    1660:	6903      	ldr	r3, [r0, #16]
    1662:	685a      	ldr	r2, [r3, #4]
    1664:	4282      	cmp	r2, r0
    1666:	bf04      	itt	eq
    1668:	6882      	ldreq	r2, [r0, #8]
    166a:	605a      	streq	r2, [r3, #4]
    166c:	f04f 0200 	mov.w	r2, #0
    1670:	6102      	str	r2, [r0, #16]
    1672:	681a      	ldr	r2, [r3, #0]
    1674:	f102 32ff 	add.w	r2, r2, #4294967295
    1678:	601a      	str	r2, [r3, #0]
    167a:	4770      	bx	lr

0000167c <__sys_write>:
    167c:	b40f      	push	{r0, r1, r2, r3}
    167e:	4669      	mov	r1, sp
    1680:	2005      	movs	r0, #5
    1682:	beab      	bkpt	0x00ab
    1684:	b004      	add	sp, #16
    1686:	4770      	bx	lr

00001688 <__main>:
    1688:	2000      	movs	r0, #0
    168a:	b508      	push	{r3, lr}
    168c:	4601      	mov	r1, r0
    168e:	4602      	mov	r2, r0
    1690:	f000 fd0e 	bl	20b0 <_initio>
    1694:	e8bd 4008 	ldmia.w	sp!, {r3, lr}
    1698:	f7fe bd7c 	b.w	194 <main>

0000169c <memset>:
    169c:	f002 bc00 	b.w	3ea0 <__aeabi_lowlevel_memset>

000016a0 <lose_trailing_zeros>:
    16a0:	4603      	mov	r3, r0
    16a2:	e000      	b.n	16a6 <lose_trailing_zeros+0x6>
    16a4:	3901      	subs	r1, #1
    16a6:	185a      	adds	r2, r3, r1
    16a8:	f812 2c01 	ldrb.w	r2, [r2, #-1]
    16ac:	2a30      	cmp	r2, #48	; 0x30
    16ae:	d0f9      	beq.n	16a4 <lose_trailing_zeros+0x4>
    16b0:	2a3e      	cmp	r2, #62	; 0x3e
    16b2:	d0f7      	beq.n	16a4 <lose_trailing_zeros+0x4>
    16b4:	2a2e      	cmp	r2, #46	; 0x2e
    16b6:	bf08      	it	eq
    16b8:	3901      	subeq	r1, #1
    16ba:	4608      	mov	r0, r1
    16bc:	4770      	bx	lr

000016be <fp_round>:
    16be:	b510      	push	{r4, lr}
    16c0:	5c42      	ldrb	r2, [r0, r1]
    16c2:	1843      	adds	r3, r0, r1
    16c4:	2a34      	cmp	r2, #52	; 0x34
    16c6:	dd1e      	ble.n	1706 <fp_round+0x48>
    16c8:	2a35      	cmp	r2, #53	; 0x35
    16ca:	d105      	bne.n	16d8 <fp_round+0x1a>
    16cc:	461c      	mov	r4, r3
    16ce:	f814 2f01 	ldrb.w	r2, [r4, #1]!
    16d2:	2a30      	cmp	r2, #48	; 0x30
    16d4:	d0fb      	beq.n	16ce <fp_round+0x10>
    16d6:	b1c2      	cbz	r2, 170a <fp_round+0x4c>
    16d8:	2430      	movs	r4, #48	; 0x30
    16da:	f813 2c01 	ldrb.w	r2, [r3, #-1]
    16de:	2a39      	cmp	r2, #57	; 0x39
    16e0:	d102      	bne.n	16e8 <fp_round+0x2a>
    16e2:	f803 4d01 	strb.w	r4, [r3, #-1]!
    16e6:	e7f8      	b.n	16da <fp_round+0x1c>
    16e8:	3201      	adds	r2, #1
    16ea:	f803 2c01 	strb.w	r2, [r3, #-1]
    16ee:	7803      	ldrb	r3, [r0, #0]
    16f0:	2b30      	cmp	r3, #48	; 0x30
    16f2:	d104      	bne.n	16fe <fp_round+0x40>
    16f4:	e00b      	b.n	170e <fp_round+0x50>
    16f6:	5c42      	ldrb	r2, [r0, r1]
    16f8:	1843      	adds	r3, r0, r1
    16fa:	705a      	strb	r2, [r3, #1]
    16fc:	3901      	subs	r1, #1
    16fe:	2900      	cmp	r1, #0
    1700:	daf9      	bge.n	16f6 <fp_round+0x38>
    1702:	2001      	movs	r0, #1
    1704:	bd10      	pop	{r4, pc}
    1706:	2000      	movs	r0, #0
    1708:	bd10      	pop	{r4, pc}
    170a:	4610      	mov	r0, r2
    170c:	bd10      	pop	{r4, pc}
    170e:	2000      	movs	r0, #0
    1710:	bd10      	pop	{r4, pc}

00001712 <pr_dec.constprop.1>:
    1712:	b530      	push	{r4, r5, lr}
    1714:	2300      	movs	r3, #0
    1716:	250a      	movs	r5, #10
    1718:	f06f 0409 	mvn.w	r4, #9
    171c:	e000      	b.n	1720 <pr_dec.constprop.1+0xe>
    171e:	4610      	mov	r0, r2
    1720:	fb90 f2f5 	sdiv	r2, r0, r5
    1724:	3030      	adds	r0, #48	; 0x30
    1726:	fb04 0002 	mla	r0, r4, r2, r0
    172a:	54c8      	strb	r0, [r1, r3]
    172c:	3b01      	subs	r3, #1
    172e:	1d98      	adds	r0, r3, #6
    1730:	d1f5      	bne.n	171e <pr_dec.constprop.1+0xc>
    1732:	bd30      	pop	{r4, r5, pc}

00001734 <sprintf>:
    1734:	b40e      	push	{r1, r2, r3}
    1736:	b530      	push	{r4, r5, lr}
    1738:	b090      	sub	sp, #64	; 0x40
    173a:	ab13      	add	r3, sp, #76	; 0x4c
    173c:	f853 4b04 	ldr.w	r4, [r3], #4
    1740:	2100      	movs	r1, #0
    1742:	2228      	movs	r2, #40	; 0x28
    1744:	4605      	mov	r5, r0
    1746:	a805      	add	r0, sp, #20
    1748:	930f      	str	r3, [sp, #60]	; 0x3c
    174a:	f7ff ffa7 	bl	169c <memset>
    174e:	230a      	movs	r3, #10
    1750:	9308      	str	r3, [sp, #32]
    1752:	f06f 4300 	mvn.w	r3, #2147483648	; 0x80000000
    1756:	9307      	str	r3, [sp, #28]
    1758:	9b0f      	ldr	r3, [sp, #60]	; 0x3c
    175a:	a805      	add	r0, sp, #20
    175c:	9301      	str	r3, [sp, #4]
    175e:	4b10      	ldr	r3, [pc, #64]	; (17a0 <sprintf+0x6c>)
    1760:	f04f 32ff 	mov.w	r2, #4294967295
    1764:	9302      	str	r3, [sp, #8]
    1766:	f06f 4300 	mvn.w	r3, #2147483648	; 0x80000000
    176a:	9400      	str	r4, [sp, #0]
    176c:	9505      	str	r5, [sp, #20]
    176e:	f000 fd09 	bl	2184 <__vfprintf>
    1772:	9b07      	ldr	r3, [sp, #28]
    1774:	4604      	mov	r4, r0
    1776:	3b01      	subs	r3, #1
    1778:	2b00      	cmp	r3, #0
    177a:	9307      	str	r3, [sp, #28]
    177c:	db05      	blt.n	178a <sprintf+0x56>
    177e:	9b05      	ldr	r3, [sp, #20]
    1780:	2200      	movs	r2, #0
    1782:	f803 2b01 	strb.w	r2, [r3], #1
    1786:	9305      	str	r3, [sp, #20]
    1788:	e003      	b.n	1792 <sprintf+0x5e>
    178a:	2000      	movs	r0, #0
    178c:	a905      	add	r1, sp, #20
    178e:	f001 fc5b 	bl	3048 <__flsbuf>
    1792:	4620      	mov	r0, r4
    1794:	b010      	add	sp, #64	; 0x40
    1796:	e8bd 4030 	ldmia.w	sp!, {r4, r5, lr}
    179a:	b003      	add	sp, #12
    179c:	4770      	bx	lr
    179e:	bf00      	nop
    17a0:	000017a9 	.word	0x000017a9
    17a4:	00000000 	.word	0x00000000

000017a8 <fp_display>:
    17a8:	e92d 4ff0 	stmdb	sp!, {r4, r5, r6, r7, r8, r9, sl, fp, lr}
    17ac:	680d      	ldr	r5, [r1, #0]
    17ae:	684c      	ldr	r4, [r1, #4]
    17b0:	b09f      	sub	sp, #124	; 0x7c
    17b2:	4621      	mov	r1, r4
    17b4:	9005      	str	r0, [sp, #20]
    17b6:	4628      	mov	r0, r5
    17b8:	e9cd 0106 	strd	r0, r1, [sp, #24]
    17bc:	9907      	ldr	r1, [sp, #28]
    17be:	469b      	mov	fp, r3
    17c0:	f3c1 430f 	ubfx	r3, r1, #16, #16
    17c4:	f023 030f 	bic.w	r3, r3, #15
    17c8:	045b      	lsls	r3, r3, #17
    17ca:	4616      	mov	r6, r2
    17cc:	0c5b      	lsrs	r3, r3, #17
    17ce:	f647 72f0 	movw	r2, #32752	; 0x7ff0
    17d2:	4293      	cmp	r3, r2
    17d4:	f8dd a0a4 	ldr.w	sl, [sp, #164]	; 0xa4
    17d8:	d12e      	bne.n	1838 <fp_display+0x90>
    17da:	2300      	movs	r3, #0
    17dc:	9c06      	ldr	r4, [sp, #24]
    17de:	70f3      	strb	r3, [r6, #3]
    17e0:	f3c1 0313 	ubfx	r3, r1, #0, #20
    17e4:	431c      	orrs	r4, r3
    17e6:	f04f 036e 	mov.w	r3, #110	; 0x6e
    17ea:	d11b      	bne.n	1824 <fp_display+0x7c>
    17ec:	7073      	strb	r3, [r6, #1]
    17ee:	2366      	movs	r3, #102	; 0x66
    17f0:	70b3      	strb	r3, [r6, #2]
    17f2:	f3c1 6307 	ubfx	r3, r1, #24, #8
    17f6:	f003 0380 	and.w	r3, r3, #128	; 0x80
    17fa:	2269      	movs	r2, #105	; 0x69
    17fc:	b2db      	uxtb	r3, r3
    17fe:	7032      	strb	r2, [r6, #0]
    1800:	460d      	mov	r5, r1
    1802:	b10b      	cbz	r3, 1808 <fp_display+0x60>
    1804:	4b88      	ldr	r3, [pc, #544]	; (1a28 <fp_display+0x280>)
    1806:	e012      	b.n	182e <fp_display+0x86>
    1808:	f01b 0f02 	tst.w	fp, #2
    180c:	d106      	bne.n	181c <fp_display+0x74>
    180e:	4b87      	ldr	r3, [pc, #540]	; (1a2c <fp_display+0x284>)
    1810:	4a87      	ldr	r2, [pc, #540]	; (1a30 <fp_display+0x288>)
    1812:	f01b 0f04 	tst.w	fp, #4
    1816:	bf08      	it	eq
    1818:	4613      	moveq	r3, r2
    181a:	e000      	b.n	181e <fp_display+0x76>
    181c:	4b85      	ldr	r3, [pc, #532]	; (1a34 <fp_display+0x28c>)
    181e:	9d28      	ldr	r5, [sp, #160]	; 0xa0
    1820:	602b      	str	r3, [r5, #0]
    1822:	e006      	b.n	1832 <fp_display+0x8a>
    1824:	7033      	strb	r3, [r6, #0]
    1826:	2261      	movs	r2, #97	; 0x61
    1828:	70b3      	strb	r3, [r6, #2]
    182a:	4b81      	ldr	r3, [pc, #516]	; (1a30 <fp_display+0x288>)
    182c:	7072      	strb	r2, [r6, #1]
    182e:	9c28      	ldr	r4, [sp, #160]	; 0xa0
    1830:	6023      	str	r3, [r4, #0]
    1832:	2403      	movs	r4, #3
    1834:	f000 bc36 	b.w	20a4 <fp_display+0x8fc>
    1838:	9805      	ldr	r0, [sp, #20]
    183a:	2861      	cmp	r0, #97	; 0x61
    183c:	f000 8259 	beq.w	1cf2 <fp_display+0x54a>
    1840:	2841      	cmp	r0, #65	; 0x41
    1842:	f000 8256 	beq.w	1cf2 <fp_display+0x54a>
    1846:	4628      	mov	r0, r5
    1848:	4621      	mov	r1, r4
    184a:	2200      	movs	r2, #0
    184c:	2300      	movs	r3, #0
    184e:	f002 fa9f 	bl	3d90 <__aeabi_dcmplt>
    1852:	b120      	cbz	r0, 185e <fp_display+0xb6>
    1854:	2101      	movs	r1, #1
    1856:	f104 4400 	add.w	r4, r4, #2147483648	; 0x80000000
    185a:	910a      	str	r1, [sp, #40]	; 0x28
    185c:	e000      	b.n	1860 <fp_display+0xb8>
    185e:	900a      	str	r0, [sp, #40]	; 0x28
    1860:	4628      	mov	r0, r5
    1862:	4621      	mov	r1, r4
    1864:	2200      	movs	r2, #0
    1866:	2300      	movs	r3, #0
    1868:	f002 fa74 	bl	3d54 <__aeabi_dcmpeq>
    186c:	2800      	cmp	r0, #0
    186e:	f040 821f 	bne.w	1cb0 <fp_display+0x508>
    1872:	aa1d      	add	r2, sp, #116	; 0x74
    1874:	4628      	mov	r0, r5
    1876:	4621      	mov	r1, r4
    1878:	f001 fcef 	bl	325a <_frexpl>
    187c:	9a1d      	ldr	r2, [sp, #116]	; 0x74
    187e:	f240 172d 	movw	r7, #301	; 0x12d
    1882:	4357      	muls	r7, r2
    1884:	f5a7 57aa 	sub.w	r7, r7, #5440	; 0x1540
    1888:	3f3c      	subs	r7, #60	; 0x3c
    188a:	f44f 737a 	mov.w	r3, #1000	; 0x3e8
    188e:	fb97 f7f3 	sdiv	r7, r7, r3
    1892:	e9cd 0110 	strd	r0, r1, [sp, #64]	; 0x40
    1896:	1aba      	subs	r2, r7, r2
    1898:	2000      	movs	r0, #0
    189a:	4967      	ldr	r1, [pc, #412]	; (1a38 <fp_display+0x290>)
    189c:	f001 fd0e 	bl	32bc <_ldexpl>
    18a0:	2f00      	cmp	r7, #0
    18a2:	e9cd 011a 	strd	r0, r1, [sp, #104]	; 0x68
    18a6:	da06      	bge.n	18b6 <fp_display+0x10e>
    18a8:	a359      	add	r3, pc, #356	; (adr r3, 1a10 <fp_display+0x268>)
    18aa:	e9d3 2300 	ldrd	r2, r3, [r3]
    18ae:	427c      	negs	r4, r7
    18b0:	e9cd 2316 	strd	r2, r3, [sp, #88]	; 0x58
    18b4:	e006      	b.n	18c4 <fp_display+0x11c>
    18b6:	4b61      	ldr	r3, [pc, #388]	; (1a3c <fp_display+0x294>)
    18b8:	f04f 0200 	mov.w	r2, #0
    18bc:	e9cd 2316 	strd	r2, r3, [sp, #88]	; 0x58
    18c0:	d016      	beq.n	18f0 <fp_display+0x148>
    18c2:	463c      	mov	r4, r7
    18c4:	07e2      	lsls	r2, r4, #31
    18c6:	d509      	bpl.n	18dc <fp_display+0x134>
    18c8:	e9dd 011a 	ldrd	r0, r1, [sp, #104]	; 0x68
    18cc:	e9dd 2316 	ldrd	r2, r3, [sp, #88]	; 0x58
    18d0:	f001 fef6 	bl	36c0 <__aeabi_dmul>
    18d4:	2c01      	cmp	r4, #1
    18d6:	e9cd 011a 	strd	r0, r1, [sp, #104]	; 0x68
    18da:	d009      	beq.n	18f0 <fp_display+0x148>
    18dc:	e9dd 0116 	ldrd	r0, r1, [sp, #88]	; 0x58
    18e0:	e9dd 2316 	ldrd	r2, r3, [sp, #88]	; 0x58
    18e4:	f001 feec 	bl	36c0 <__aeabi_dmul>
    18e8:	1064      	asrs	r4, r4, #1
    18ea:	e9cd 0116 	strd	r0, r1, [sp, #88]	; 0x58
    18ee:	e7e9      	b.n	18c4 <fp_display+0x11c>
    18f0:	e9dd 0110 	ldrd	r0, r1, [sp, #64]	; 0x40
    18f4:	e9dd 231a 	ldrd	r2, r3, [sp, #104]	; 0x68
    18f8:	f001 ff7e 	bl	37f8 <__aeabi_ddiv>
    18fc:	e9cd 0112 	strd	r0, r1, [sp, #72]	; 0x48
    1900:	e010      	b.n	1924 <fp_display+0x17c>
    1902:	e9dd 0112 	ldrd	r0, r1, [sp, #72]	; 0x48
    1906:	2200      	movs	r2, #0
    1908:	4b4d      	ldr	r3, [pc, #308]	; (1a40 <fp_display+0x298>)
    190a:	f001 fed9 	bl	36c0 <__aeabi_dmul>
    190e:	e9cd 0112 	strd	r0, r1, [sp, #72]	; 0x48
    1912:	e9dd 011a 	ldrd	r0, r1, [sp, #104]	; 0x68
    1916:	2200      	movs	r2, #0
    1918:	4b49      	ldr	r3, [pc, #292]	; (1a40 <fp_display+0x298>)
    191a:	f001 ff6d 	bl	37f8 <__aeabi_ddiv>
    191e:	e9cd 011a 	strd	r0, r1, [sp, #104]	; 0x68
    1922:	3f01      	subs	r7, #1
    1924:	e9dd 0112 	ldrd	r0, r1, [sp, #72]	; 0x48
    1928:	a33b      	add	r3, pc, #236	; (adr r3, 1a18 <fp_display+0x270>)
    192a:	e9d3 2300 	ldrd	r2, r3, [r3]
    192e:	f002 fa2f 	bl	3d90 <__aeabi_dcmplt>
    1932:	2800      	cmp	r0, #0
    1934:	d1e5      	bne.n	1902 <fp_display+0x15a>
    1936:	e010      	b.n	195a <fp_display+0x1b2>
    1938:	e9dd 0112 	ldrd	r0, r1, [sp, #72]	; 0x48
    193c:	2200      	movs	r2, #0
    193e:	4b40      	ldr	r3, [pc, #256]	; (1a40 <fp_display+0x298>)
    1940:	f001 ff5a 	bl	37f8 <__aeabi_ddiv>
    1944:	e9cd 0112 	strd	r0, r1, [sp, #72]	; 0x48
    1948:	e9dd 011a 	ldrd	r0, r1, [sp, #104]	; 0x68
    194c:	2200      	movs	r2, #0
    194e:	4b3c      	ldr	r3, [pc, #240]	; (1a40 <fp_display+0x298>)
    1950:	f001 feb6 	bl	36c0 <__aeabi_dmul>
    1954:	e9cd 011a 	strd	r0, r1, [sp, #104]	; 0x68
    1958:	3701      	adds	r7, #1
    195a:	e9dd 0112 	ldrd	r0, r1, [sp, #72]	; 0x48
    195e:	a330      	add	r3, pc, #192	; (adr r3, 1a20 <fp_display+0x278>)
    1960:	e9d3 2300 	ldrd	r2, r3, [r3]
    1964:	f002 fa6e 	bl	3e44 <__aeabi_dcmpge>
    1968:	2800      	cmp	r0, #0
    196a:	d1e5      	bne.n	1938 <fp_display+0x190>
    196c:	e9dd 0112 	ldrd	r0, r1, [sp, #72]	; 0x48
    1970:	f002 f99a 	bl	3ca8 <__aeabi_d2iz>
    1974:	427b      	negs	r3, r7
    1976:	ea13 0327 	ands.w	r3, r3, r7, asr #32
    197a:	bf38      	it	cc
    197c:	463b      	movcc	r3, r7
    197e:	960e      	str	r6, [sp, #56]	; 0x38
    1980:	f8cd b03c 	str.w	fp, [sp, #60]	; 0x3c
    1984:	930b      	str	r3, [sp, #44]	; 0x2c
    1986:	46d3      	mov	fp, sl
    1988:	4606      	mov	r6, r0
    198a:	46ba      	mov	sl, r7
    198c:	4630      	mov	r0, r6
    198e:	f002 f9d9 	bl	3d44 <__aeabi_i2d>
    1992:	9a1d      	ldr	r2, [sp, #116]	; 0x74
    1994:	ebc2 020a 	rsb	r2, r2, sl
    1998:	f001 fc90 	bl	32bc <_ldexpl>
    199c:	2200      	movs	r2, #0
    199e:	2300      	movs	r3, #0
    19a0:	f1ba 0f00 	cmp.w	sl, #0
    19a4:	e9cd 0112 	strd	r0, r1, [sp, #72]	; 0x48
    19a8:	e9cd 2314 	strd	r2, r3, [sp, #80]	; 0x50
    19ac:	da4a      	bge.n	1a44 <fp_display+0x29c>
    19ae:	a518      	add	r5, pc, #96	; (adr r5, 1a10 <fp_display+0x268>)
    19b0:	e9d5 4500 	ldrd	r4, r5, [r5]
    19b4:	e9cd 4516 	strd	r4, r5, [sp, #88]	; 0x58
    19b8:	e9cd 2318 	strd	r2, r3, [sp, #96]	; 0x60
    19bc:	e9dd 2316 	ldrd	r2, r3, [sp, #88]	; 0x58
    19c0:	e9dd 0116 	ldrd	r0, r1, [sp, #88]	; 0x58
    19c4:	2200      	movs	r2, #0
    19c6:	4614      	mov	r4, r2
    19c8:	461d      	mov	r5, r3
    19ca:	f001 ffc9 	bl	3960 <__aeabi_dsub>
    19ce:	e9dd 8918 	ldrd	r8, r9, [sp, #96]	; 0x60
    19d2:	4602      	mov	r2, r0
    19d4:	460b      	mov	r3, r1
    19d6:	4640      	mov	r0, r8
    19d8:	4649      	mov	r1, r9
    19da:	f002 f8bb 	bl	3b54 <__aeabi_dadd>
    19de:	e9cd 0118 	strd	r0, r1, [sp, #96]	; 0x60
    19e2:	e9cd 4516 	strd	r4, r5, [sp, #88]	; 0x58
    19e6:	e9dd 0116 	ldrd	r0, r1, [sp, #88]	; 0x58
    19ea:	2200      	movs	r2, #0
    19ec:	4b13      	ldr	r3, [pc, #76]	; (1a3c <fp_display+0x294>)
    19ee:	f001 fe67 	bl	36c0 <__aeabi_dmul>
    19f2:	4602      	mov	r2, r0
    19f4:	460b      	mov	r3, r1
    19f6:	2000      	movs	r0, #0
    19f8:	490f      	ldr	r1, [pc, #60]	; (1a38 <fp_display+0x290>)
    19fa:	f001 ffb1 	bl	3960 <__aeabi_dsub>
    19fe:	2200      	movs	r2, #0
    1a00:	4b0e      	ldr	r3, [pc, #56]	; (1a3c <fp_display+0x294>)
    1a02:	f001 fef9 	bl	37f8 <__aeabi_ddiv>
    1a06:	e9cd 0118 	strd	r0, r1, [sp, #96]	; 0x60
    1a0a:	e027      	b.n	1a5c <fp_display+0x2b4>
    1a0c:	f3af 8000 	nop.w
    1a10:	9999999a 	.word	0x9999999a
    1a14:	3fc99999 	.word	0x3fc99999
    1a18:	00000000 	.word	0x00000000
    1a1c:	40f86a00 	.word	0x40f86a00
    1a20:	00000000 	.word	0x00000000
    1a24:	412e8480 	.word	0x412e8480
    1a28:	00004036 	.word	0x00004036
    1a2c:	00004006 	.word	0x00004006
    1a30:	00004084 	.word	0x00004084
    1a34:	00004004 	.word	0x00004004
    1a38:	3ff00000 	.word	0x3ff00000
    1a3c:	40140000 	.word	0x40140000
    1a40:	40240000 	.word	0x40240000
    1a44:	4994      	ldr	r1, [pc, #592]	; (1c98 <fp_display+0x4f0>)
    1a46:	f04f 0000 	mov.w	r0, #0
    1a4a:	f04f 0200 	mov.w	r2, #0
    1a4e:	f04f 0300 	mov.w	r3, #0
    1a52:	e9cd 0116 	strd	r0, r1, [sp, #88]	; 0x58
    1a56:	e9cd 2318 	strd	r2, r3, [sp, #96]	; 0x60
    1a5a:	d07a      	beq.n	1b52 <fp_display+0x3aa>
    1a5c:	9f0b      	ldr	r7, [sp, #44]	; 0x2c
    1a5e:	07fb      	lsls	r3, r7, #31
    1a60:	d542      	bpl.n	1ae8 <fp_display+0x340>
    1a62:	e9dd 0112 	ldrd	r0, r1, [sp, #72]	; 0x48
    1a66:	e9dd 2318 	ldrd	r2, r3, [sp, #96]	; 0x60
    1a6a:	e9dd 4514 	ldrd	r4, r5, [sp, #80]	; 0x50
    1a6e:	e9cd 4508 	strd	r4, r5, [sp, #32]
    1a72:	e9dd 4516 	ldrd	r4, r5, [sp, #88]	; 0x58
    1a76:	e9dd 8918 	ldrd	r8, r9, [sp, #96]	; 0x60
    1a7a:	f001 fe21 	bl	36c0 <__aeabi_dmul>
    1a7e:	4642      	mov	r2, r8
    1a80:	e9cd 010c 	strd	r0, r1, [sp, #48]	; 0x30
    1a84:	464b      	mov	r3, r9
    1a86:	4620      	mov	r0, r4
    1a88:	4629      	mov	r1, r5
    1a8a:	f002 f863 	bl	3b54 <__aeabi_dadd>
    1a8e:	4602      	mov	r2, r0
    1a90:	460b      	mov	r3, r1
    1a92:	e9dd 0108 	ldrd	r0, r1, [sp, #32]
    1a96:	f001 fe13 	bl	36c0 <__aeabi_dmul>
    1a9a:	4602      	mov	r2, r0
    1a9c:	460b      	mov	r3, r1
    1a9e:	e9dd 010c 	ldrd	r0, r1, [sp, #48]	; 0x30
    1aa2:	f002 f857 	bl	3b54 <__aeabi_dadd>
    1aa6:	e9cd 0114 	strd	r0, r1, [sp, #80]	; 0x50
    1aaa:	e9dd 0112 	ldrd	r0, r1, [sp, #72]	; 0x48
    1aae:	e9dd 2316 	ldrd	r2, r3, [sp, #88]	; 0x58
    1ab2:	f001 fe05 	bl	36c0 <__aeabi_dmul>
    1ab6:	e9cd 0112 	strd	r0, r1, [sp, #72]	; 0x48
    1aba:	e9dd 2312 	ldrd	r2, r3, [sp, #72]	; 0x48
    1abe:	e9dd 0112 	ldrd	r0, r1, [sp, #72]	; 0x48
    1ac2:	2200      	movs	r2, #0
    1ac4:	4614      	mov	r4, r2
    1ac6:	461d      	mov	r5, r3
    1ac8:	f001 ff4a 	bl	3960 <__aeabi_dsub>
    1acc:	e9dd 8914 	ldrd	r8, r9, [sp, #80]	; 0x50
    1ad0:	4602      	mov	r2, r0
    1ad2:	460b      	mov	r3, r1
    1ad4:	4640      	mov	r0, r8
    1ad6:	4649      	mov	r1, r9
    1ad8:	f002 f83c 	bl	3b54 <__aeabi_dadd>
    1adc:	2f01      	cmp	r7, #1
    1ade:	e9cd 0114 	strd	r0, r1, [sp, #80]	; 0x50
    1ae2:	e9cd 4512 	strd	r4, r5, [sp, #72]	; 0x48
    1ae6:	d034      	beq.n	1b52 <fp_display+0x3aa>
    1ae8:	e9dd 8918 	ldrd	r8, r9, [sp, #96]	; 0x60
    1aec:	e9dd 0116 	ldrd	r0, r1, [sp, #88]	; 0x58
    1af0:	4602      	mov	r2, r0
    1af2:	460b      	mov	r3, r1
    1af4:	e9dd 4518 	ldrd	r4, r5, [sp, #96]	; 0x60
    1af8:	f002 f82c 	bl	3b54 <__aeabi_dadd>
    1afc:	4622      	mov	r2, r4
    1afe:	462b      	mov	r3, r5
    1b00:	f002 f828 	bl	3b54 <__aeabi_dadd>
    1b04:	4602      	mov	r2, r0
    1b06:	460b      	mov	r3, r1
    1b08:	4640      	mov	r0, r8
    1b0a:	4649      	mov	r1, r9
    1b0c:	f001 fdd8 	bl	36c0 <__aeabi_dmul>
    1b10:	e9cd 0118 	strd	r0, r1, [sp, #96]	; 0x60
    1b14:	e9dd 0116 	ldrd	r0, r1, [sp, #88]	; 0x58
    1b18:	e9dd 2316 	ldrd	r2, r3, [sp, #88]	; 0x58
    1b1c:	f001 fdd0 	bl	36c0 <__aeabi_dmul>
    1b20:	e9cd 0116 	strd	r0, r1, [sp, #88]	; 0x58
    1b24:	e9dd 2316 	ldrd	r2, r3, [sp, #88]	; 0x58
    1b28:	e9dd 0116 	ldrd	r0, r1, [sp, #88]	; 0x58
    1b2c:	2200      	movs	r2, #0
    1b2e:	4614      	mov	r4, r2
    1b30:	461d      	mov	r5, r3
    1b32:	f001 ff15 	bl	3960 <__aeabi_dsub>
    1b36:	e9dd 8918 	ldrd	r8, r9, [sp, #96]	; 0x60
    1b3a:	4602      	mov	r2, r0
    1b3c:	460b      	mov	r3, r1
    1b3e:	4640      	mov	r0, r8
    1b40:	4649      	mov	r1, r9
    1b42:	f002 f807 	bl	3b54 <__aeabi_dadd>
    1b46:	107f      	asrs	r7, r7, #1
    1b48:	e9cd 0118 	strd	r0, r1, [sp, #96]	; 0x60
    1b4c:	e9cd 4516 	strd	r4, r5, [sp, #88]	; 0x58
    1b50:	e785      	b.n	1a5e <fp_display+0x2b6>
    1b52:	e9dd 0112 	ldrd	r0, r1, [sp, #72]	; 0x48
    1b56:	e9dd 2310 	ldrd	r2, r3, [sp, #64]	; 0x40
    1b5a:	f002 f947 	bl	3dec <__aeabi_dcmple>
    1b5e:	b908      	cbnz	r0, 1b64 <fp_display+0x3bc>
    1b60:	3e01      	subs	r6, #1
    1b62:	e713      	b.n	198c <fp_display+0x1e4>
    1b64:	e9dd 0110 	ldrd	r0, r1, [sp, #64]	; 0x40
    1b68:	e9dd 2312 	ldrd	r2, r3, [sp, #72]	; 0x48
    1b6c:	f001 fef8 	bl	3960 <__aeabi_dsub>
    1b70:	e9cd 0110 	strd	r0, r1, [sp, #64]	; 0x40
    1b74:	e9dd 0110 	ldrd	r0, r1, [sp, #64]	; 0x40
    1b78:	e9dd 2314 	ldrd	r2, r3, [sp, #80]	; 0x50
    1b7c:	f001 fef0 	bl	3960 <__aeabi_dsub>
    1b80:	e9cd 0110 	strd	r0, r1, [sp, #64]	; 0x40
    1b84:	e9dd 0110 	ldrd	r0, r1, [sp, #64]	; 0x40
    1b88:	e9dd 231a 	ldrd	r2, r3, [sp, #104]	; 0x68
    1b8c:	f001 fe34 	bl	37f8 <__aeabi_ddiv>
    1b90:	a33f      	add	r3, pc, #252	; (adr r3, 1c90 <fp_display+0x4e8>)
    1b92:	e9d3 2300 	ldrd	r2, r3, [r3]
    1b96:	e9cd 0110 	strd	r0, r1, [sp, #64]	; 0x40
    1b9a:	e9dd 0110 	ldrd	r0, r1, [sp, #64]	; 0x40
    1b9e:	f001 fd8f 	bl	36c0 <__aeabi_dmul>
    1ba2:	e9cd 0110 	strd	r0, r1, [sp, #64]	; 0x40
    1ba6:	e9dd 0110 	ldrd	r0, r1, [sp, #64]	; 0x40
    1baa:	f002 f87d 	bl	3ca8 <__aeabi_d2iz>
    1bae:	e9dd 8910 	ldrd	r8, r9, [sp, #64]	; 0x40
    1bb2:	4604      	mov	r4, r0
    1bb4:	f002 f8c6 	bl	3d44 <__aeabi_i2d>
    1bb8:	4602      	mov	r2, r0
    1bba:	460b      	mov	r3, r1
    1bbc:	4640      	mov	r0, r8
    1bbe:	4649      	mov	r1, r9
    1bc0:	f001 fece 	bl	3960 <__aeabi_dsub>
    1bc4:	a332      	add	r3, pc, #200	; (adr r3, 1c90 <fp_display+0x4e8>)
    1bc6:	e9d3 2300 	ldrd	r2, r3, [r3]
    1bca:	f001 fd79 	bl	36c0 <__aeabi_dmul>
    1bce:	e9cd 0110 	strd	r0, r1, [sp, #64]	; 0x40
    1bd2:	e9dd 0110 	ldrd	r0, r1, [sp, #64]	; 0x40
    1bd6:	f002 f867 	bl	3ca8 <__aeabi_d2iz>
    1bda:	4657      	mov	r7, sl
    1bdc:	4635      	mov	r5, r6
    1bde:	46da      	mov	sl, fp
    1be0:	9e0e      	ldr	r6, [sp, #56]	; 0x38
    1be2:	f8dd b03c 	ldr.w	fp, [sp, #60]	; 0x3c
    1be6:	4680      	mov	r8, r0
    1be8:	e004      	b.n	1bf4 <fp_display+0x44c>
    1bea:	f508 2874 	add.w	r8, r8, #999424	; 0xf4000
    1bee:	f508 7810 	add.w	r8, r8, #576	; 0x240
    1bf2:	3c01      	subs	r4, #1
    1bf4:	f1b8 0f00 	cmp.w	r8, #0
    1bf8:	dbf7      	blt.n	1bea <fp_display+0x442>
    1bfa:	e005      	b.n	1c08 <fp_display+0x460>
    1bfc:	f5a8 2874 	sub.w	r8, r8, #999424	; 0xf4000
    1c00:	f5a8 7810 	sub.w	r8, r8, #576	; 0x240
    1c04:	3401      	adds	r4, #1
    1c06:	e000      	b.n	1c0a <fp_display+0x462>
    1c08:	4a24      	ldr	r2, [pc, #144]	; (1c9c <fp_display+0x4f4>)
    1c0a:	4590      	cmp	r8, r2
    1c0c:	4b23      	ldr	r3, [pc, #140]	; (1c9c <fp_display+0x4f4>)
    1c0e:	dcf5      	bgt.n	1bfc <fp_display+0x454>
    1c10:	e004      	b.n	1c1c <fp_display+0x474>
    1c12:	f504 2474 	add.w	r4, r4, #999424	; 0xf4000
    1c16:	f504 7410 	add.w	r4, r4, #576	; 0x240
    1c1a:	3d01      	subs	r5, #1
    1c1c:	2c00      	cmp	r4, #0
    1c1e:	dbf8      	blt.n	1c12 <fp_display+0x46a>
    1c20:	e004      	b.n	1c2c <fp_display+0x484>
    1c22:	f5a4 2474 	sub.w	r4, r4, #999424	; 0xf4000
    1c26:	f5a4 7410 	sub.w	r4, r4, #576	; 0x240
    1c2a:	3501      	adds	r5, #1
    1c2c:	429c      	cmp	r4, r3
    1c2e:	dcf8      	bgt.n	1c22 <fp_display+0x47a>
    1c30:	4b1b      	ldr	r3, [pc, #108]	; (1ca0 <fp_display+0x4f8>)
    1c32:	4629      	mov	r1, r5
    1c34:	429d      	cmp	r5, r3
    1c36:	dc12      	bgt.n	1c5e <fp_display+0x4b6>
    1c38:	4a1a      	ldr	r2, [pc, #104]	; (1ca4 <fp_display+0x4fc>)
    1c3a:	491b      	ldr	r1, [pc, #108]	; (1ca8 <fp_display+0x500>)
    1c3c:	fb94 f0f2 	sdiv	r0, r4, r2
    1c40:	fb98 f2f2 	sdiv	r2, r8, r2
    1c44:	fb01 4400 	mla	r4, r1, r0, r4
    1c48:	fb01 8802 	mla	r8, r1, r2, r8
    1c4c:	230a      	movs	r3, #10
    1c4e:	fb03 0505 	mla	r5, r3, r5, r0
    1c52:	fb03 2404 	mla	r4, r3, r4, r2
    1c56:	fb03 f808 	mul.w	r8, r3, r8
    1c5a:	3f01      	subs	r7, #1
    1c5c:	e02e      	b.n	1cbc <fp_display+0x514>
    1c5e:	4b0f      	ldr	r3, [pc, #60]	; (1c9c <fp_display+0x4f4>)
    1c60:	429d      	cmp	r5, r3
    1c62:	dd2b      	ble.n	1cbc <fp_display+0x514>
    1c64:	230a      	movs	r3, #10
    1c66:	f06f 0009 	mvn.w	r0, #9
    1c6a:	fb95 f5f3 	sdiv	r5, r5, r3
    1c6e:	fb00 1105 	mla	r1, r0, r5, r1
    1c72:	4a0e      	ldr	r2, [pc, #56]	; (1cac <fp_display+0x504>)
    1c74:	3701      	adds	r7, #1
    1c76:	fb02 4101 	mla	r1, r2, r1, r4
    1c7a:	fb91 f4f3 	sdiv	r4, r1, r3
    1c7e:	fb00 1104 	mla	r1, r0, r4, r1
    1c82:	fb02 8801 	mla	r8, r2, r1, r8
    1c86:	f108 0805 	add.w	r8, r8, #5
    1c8a:	fb98 f8f3 	sdiv	r8, r8, r3
    1c8e:	e015      	b.n	1cbc <fp_display+0x514>
    1c90:	00000000 	.word	0x00000000
    1c94:	412e8480 	.word	0x412e8480
    1c98:	40140000 	.word	0x40140000
    1c9c:	000f423f 	.word	0x000f423f
    1ca0:	0001869f 	.word	0x0001869f
    1ca4:	000186a0 	.word	0x000186a0
    1ca8:	fffe7960 	.word	0xfffe7960
    1cac:	000f4240 	.word	0x000f4240
    1cb0:	f04f 0800 	mov.w	r8, #0
    1cb4:	f06f 0704 	mvn.w	r7, #4
    1cb8:	4644      	mov	r4, r8
    1cba:	4645      	mov	r5, r8
    1cbc:	4631      	mov	r1, r6
    1cbe:	f04f 0930 	mov.w	r9, #48	; 0x30
    1cc2:	4628      	mov	r0, r5
    1cc4:	f801 9b06 	strb.w	r9, [r1], #6
    1cc8:	f7ff fd23 	bl	1712 <pr_dec.constprop.1>
    1ccc:	f106 010c 	add.w	r1, r6, #12
    1cd0:	4620      	mov	r0, r4
    1cd2:	f7ff fd1e 	bl	1712 <pr_dec.constprop.1>
    1cd6:	f106 0112 	add.w	r1, r6, #18
    1cda:	4640      	mov	r0, r8
    1cdc:	f7ff fd19 	bl	1712 <pr_dec.constprop.1>
    1ce0:	9d0a      	ldr	r5, [sp, #40]	; 0x28
    1ce2:	2300      	movs	r3, #0
    1ce4:	3705      	adds	r7, #5
    1ce6:	f886 9013 	strb.w	r9, [r6, #19]
    1cea:	7533      	strb	r3, [r6, #20]
    1cec:	ea45 0787 	orr.w	r7, r5, r7, lsl #2
    1cf0:	e000      	b.n	1cf4 <fp_display+0x54c>
    1cf2:	2700      	movs	r7, #0
    1cf4:	07fd      	lsls	r5, r7, #31
    1cf6:	d503      	bpl.n	1d00 <fp_display+0x558>
    1cf8:	4b9e      	ldr	r3, [pc, #632]	; (1f74 <fp_display+0x7cc>)
    1cfa:	9c28      	ldr	r4, [sp, #160]	; 0xa0
    1cfc:	6023      	str	r3, [r4, #0]
    1cfe:	e00c      	b.n	1d1a <fp_display+0x572>
    1d00:	f01b 0f02 	tst.w	fp, #2
    1d04:	d106      	bne.n	1d14 <fp_display+0x56c>
    1d06:	4b9c      	ldr	r3, [pc, #624]	; (1f78 <fp_display+0x7d0>)
    1d08:	4a9c      	ldr	r2, [pc, #624]	; (1f7c <fp_display+0x7d4>)
    1d0a:	f01b 0f04 	tst.w	fp, #4
    1d0e:	bf08      	it	eq
    1d10:	4613      	moveq	r3, r2
    1d12:	e000      	b.n	1d16 <fp_display+0x56e>
    1d14:	4b9a      	ldr	r3, [pc, #616]	; (1f80 <fp_display+0x7d8>)
    1d16:	9d28      	ldr	r5, [sp, #160]	; 0xa0
    1d18:	602b      	str	r3, [r5, #0]
    1d1a:	9c05      	ldr	r4, [sp, #20]
    1d1c:	2304      	movs	r3, #4
    1d1e:	f027 0701 	bic.w	r7, r7, #1
    1d22:	2c61      	cmp	r4, #97	; 0x61
    1d24:	fb97 f7f3 	sdiv	r7, r7, r3
    1d28:	d014      	beq.n	1d54 <fp_display+0x5ac>
    1d2a:	dc08      	bgt.n	1d3e <fp_display+0x596>
    1d2c:	2c45      	cmp	r4, #69	; 0x45
    1d2e:	d05b      	beq.n	1de8 <fp_display+0x640>
    1d30:	2c47      	cmp	r4, #71	; 0x47
    1d32:	f000 8191 	beq.w	2058 <fp_display+0x8b0>
    1d36:	2c41      	cmp	r4, #65	; 0x41
    1d38:	f040 818c 	bne.w	2054 <fp_display+0x8ac>
    1d3c:	e00a      	b.n	1d54 <fp_display+0x5ac>
    1d3e:	9d05      	ldr	r5, [sp, #20]
    1d40:	2d66      	cmp	r5, #102	; 0x66
    1d42:	f000 80bb 	beq.w	1ebc <fp_display+0x714>
    1d46:	2d67      	cmp	r5, #103	; 0x67
    1d48:	f000 8186 	beq.w	2058 <fp_display+0x8b0>
    1d4c:	2d65      	cmp	r5, #101	; 0x65
    1d4e:	f040 8181 	bne.w	2054 <fp_display+0x8ac>
    1d52:	e049      	b.n	1de8 <fp_display+0x640>
    1d54:	f8dd e01c 	ldr.w	lr, [sp, #28]
    1d58:	9a06      	ldr	r2, [sp, #24]
    1d5a:	2000      	movs	r0, #0
    1d5c:	f3ce 0313 	ubfx	r3, lr, #0, #20
    1d60:	4310      	orrs	r0, r2
    1d62:	f3ce 520a 	ubfx	r2, lr, #20, #11
    1d66:	4619      	mov	r1, r3
    1d68:	f5a2 737e 	sub.w	r3, r2, #1016	; 0x3f8
    1d6c:	3b07      	subs	r3, #7
    1d6e:	b91a      	cbnz	r2, 1d78 <fp_display+0x5d0>
    1d70:	ea50 0401 	orrs.w	r4, r0, r1
    1d74:	bf08      	it	eq
    1d76:	2300      	moveq	r3, #0
    1d78:	f8da 4000 	ldr.w	r4, [sl]
    1d7c:	b984      	cbnz	r4, 1da0 <fp_display+0x5f8>
    1d7e:	f01b 0f08 	tst.w	fp, #8
    1d82:	d10d      	bne.n	1da0 <fp_display+0x5f8>
    1d84:	487f      	ldr	r0, [pc, #508]	; (1f84 <fp_display+0x7dc>)
    1d86:	9d05      	ldr	r5, [sp, #20]
    1d88:	497f      	ldr	r1, [pc, #508]	; (1f88 <fp_display+0x7e0>)
    1d8a:	2a00      	cmp	r2, #0
    1d8c:	bf14      	ite	ne
    1d8e:	2231      	movne	r2, #49	; 0x31
    1d90:	2230      	moveq	r2, #48	; 0x30
    1d92:	2d61      	cmp	r5, #97	; 0x61
    1d94:	bf18      	it	ne
    1d96:	4601      	movne	r1, r0
    1d98:	4630      	mov	r0, r6
    1d9a:	f7ff fccb 	bl	1734 <sprintf>
    1d9e:	e013      	b.n	1dc8 <fp_display+0x620>
    1da0:	4d7a      	ldr	r5, [pc, #488]	; (1f8c <fp_display+0x7e4>)
    1da2:	4f7b      	ldr	r7, [pc, #492]	; (1f90 <fp_display+0x7e8>)
    1da4:	f8dd e014 	ldr.w	lr, [sp, #20]
    1da8:	e9cd 0100 	strd	r0, r1, [sp]
    1dac:	f1be 0f61 	cmp.w	lr, #97	; 0x61
    1db0:	bf18      	it	ne
    1db2:	463d      	movne	r5, r7
    1db4:	9302      	str	r3, [sp, #8]
    1db6:	2a00      	cmp	r2, #0
    1db8:	bf14      	ite	ne
    1dba:	2231      	movne	r2, #49	; 0x31
    1dbc:	2230      	moveq	r2, #48	; 0x30
    1dbe:	4630      	mov	r0, r6
    1dc0:	4629      	mov	r1, r5
    1dc2:	4623      	mov	r3, r4
    1dc4:	f7ff fcb6 	bl	1734 <sprintf>
    1dc8:	4604      	mov	r4, r0
    1dca:	9807      	ldr	r0, [sp, #28]
    1dcc:	4a6b      	ldr	r2, [pc, #428]	; (1f7c <fp_display+0x7d4>)
    1dce:	f3c0 6307 	ubfx	r3, r0, #24, #8
    1dd2:	f003 0380 	and.w	r3, r3, #128	; 0x80
    1dd6:	4967      	ldr	r1, [pc, #412]	; (1f74 <fp_display+0x7cc>)
    1dd8:	b2db      	uxtb	r3, r3
    1dda:	9d28      	ldr	r5, [sp, #160]	; 0xa0
    1ddc:	2b00      	cmp	r3, #0
    1dde:	bf14      	ite	ne
    1de0:	460b      	movne	r3, r1
    1de2:	4613      	moveq	r3, r2
    1de4:	602b      	str	r3, [r5, #0]
    1de6:	e15d      	b.n	20a4 <fp_display+0x8fc>
    1de8:	f8da 3000 	ldr.w	r3, [sl]
    1dec:	2b11      	cmp	r3, #17
    1dee:	dd05      	ble.n	1dfc <fp_display+0x654>
    1df0:	9c2b      	ldr	r4, [sp, #172]	; 0xac
    1df2:	3b11      	subs	r3, #17
    1df4:	6023      	str	r3, [r4, #0]
    1df6:	2311      	movs	r3, #17
    1df8:	f8ca 3000 	str.w	r3, [sl]
    1dfc:	f8da 4000 	ldr.w	r4, [sl]
    1e00:	3402      	adds	r4, #2
    1e02:	f41b 6500 	ands.w	r5, fp, #2048	; 0x800
    1e06:	d104      	bne.n	1e12 <fp_display+0x66a>
    1e08:	4630      	mov	r0, r6
    1e0a:	4621      	mov	r1, r4
    1e0c:	f7ff fc57 	bl	16be <fp_round>
    1e10:	183f      	adds	r7, r7, r0
    1e12:	7873      	ldrb	r3, [r6, #1]
    1e14:	7033      	strb	r3, [r6, #0]
    1e16:	f8da 3000 	ldr.w	r3, [sl]
    1e1a:	b923      	cbnz	r3, 1e26 <fp_display+0x67e>
    1e1c:	f640 0308 	movw	r3, #2056	; 0x808
    1e20:	ea0b 0303 	and.w	r3, fp, r3
    1e24:	b113      	cbz	r3, 1e2c <fp_display+0x684>
    1e26:	232e      	movs	r3, #46	; 0x2e
    1e28:	7073      	strb	r3, [r6, #1]
    1e2a:	e000      	b.n	1e2e <fp_display+0x686>
    1e2c:	2401      	movs	r4, #1
    1e2e:	982b      	ldr	r0, [sp, #172]	; 0xac
    1e30:	6803      	ldr	r3, [r0, #0]
    1e32:	2b00      	cmp	r3, #0
    1e34:	dd02      	ble.n	1e3c <fp_display+0x694>
    1e36:	233e      	movs	r3, #62	; 0x3e
    1e38:	5533      	strb	r3, [r6, r4]
    1e3a:	3401      	adds	r4, #1
    1e3c:	b13d      	cbz	r5, 1e4e <fp_display+0x6a6>
    1e3e:	f01b 0f08 	tst.w	fp, #8
    1e42:	d104      	bne.n	1e4e <fp_display+0x6a6>
    1e44:	4621      	mov	r1, r4
    1e46:	4630      	mov	r0, r6
    1e48:	f7ff fc2a 	bl	16a0 <lose_trailing_zeros>
    1e4c:	4604      	mov	r4, r0
    1e4e:	9d05      	ldr	r5, [sp, #20]
    1e50:	1c63      	adds	r3, r4, #1
    1e52:	2f00      	cmp	r7, #0
    1e54:	5535      	strb	r5, [r6, r4]
    1e56:	f104 0402 	add.w	r4, r4, #2
    1e5a:	da02      	bge.n	1e62 <fp_display+0x6ba>
    1e5c:	427f      	negs	r7, r7
    1e5e:	222d      	movs	r2, #45	; 0x2d
    1e60:	e000      	b.n	1e64 <fp_display+0x6bc>
    1e62:	222b      	movs	r2, #43	; 0x2b
    1e64:	f5b7 7f7a 	cmp.w	r7, #1000	; 0x3e8
    1e68:	54f2      	strb	r2, [r6, r3]
    1e6a:	4623      	mov	r3, r4
    1e6c:	db0a      	blt.n	1e84 <fp_display+0x6dc>
    1e6e:	f44f 727a 	mov.w	r2, #1000	; 0x3e8
    1e72:	4948      	ldr	r1, [pc, #288]	; (1f94 <fp_display+0x7ec>)
    1e74:	fb97 f2f2 	sdiv	r2, r7, r2
    1e78:	fb01 7702 	mla	r7, r1, r2, r7
    1e7c:	f102 0330 	add.w	r3, r2, #48	; 0x30
    1e80:	5533      	strb	r3, [r6, r4]
    1e82:	1c63      	adds	r3, r4, #1
    1e84:	2f63      	cmp	r7, #99	; 0x63
    1e86:	dd0a      	ble.n	1e9e <fp_display+0x6f6>
    1e88:	2264      	movs	r2, #100	; 0x64
    1e8a:	fb97 f2f2 	sdiv	r2, r7, r2
    1e8e:	f102 0130 	add.w	r1, r2, #48	; 0x30
    1e92:	54f1      	strb	r1, [r6, r3]
    1e94:	f06f 0163 	mvn.w	r1, #99	; 0x63
    1e98:	fb01 7702 	mla	r7, r1, r2, r7
    1e9c:	3301      	adds	r3, #1
    1e9e:	220a      	movs	r2, #10
    1ea0:	fb97 f2f2 	sdiv	r2, r7, r2
    1ea4:	f102 0130 	add.w	r1, r2, #48	; 0x30
    1ea8:	54f1      	strb	r1, [r6, r3]
    1eaa:	3730      	adds	r7, #48	; 0x30
    1eac:	f06f 0109 	mvn.w	r1, #9
    1eb0:	fb01 7202 	mla	r2, r1, r2, r7
    1eb4:	18f6      	adds	r6, r6, r3
    1eb6:	7072      	strb	r2, [r6, #1]
    1eb8:	1c9c      	adds	r4, r3, #2
    1eba:	e0f3      	b.n	20a4 <fp_display+0x8fc>
    1ebc:	2f00      	cmp	r7, #0
    1ebe:	f8da 3000 	ldr.w	r3, [sl]
    1ec2:	da47      	bge.n	1f54 <fp_display+0x7ac>
    1ec4:	427d      	negs	r5, r7
    1ec6:	1c5a      	adds	r2, r3, #1
    1ec8:	4295      	cmp	r5, r2
    1eca:	dd09      	ble.n	1ee0 <fp_display+0x738>
    1ecc:	2330      	movs	r3, #48	; 0x30
    1ece:	7033      	strb	r3, [r6, #0]
    1ed0:	232e      	movs	r3, #46	; 0x2e
    1ed2:	7073      	strb	r3, [r6, #1]
    1ed4:	9c2b      	ldr	r4, [sp, #172]	; 0xac
    1ed6:	f8da 3000 	ldr.w	r3, [sl]
    1eda:	6023      	str	r3, [r4, #0]
    1edc:	2402      	movs	r4, #2
    1ede:	e034      	b.n	1f4a <fp_display+0x7a2>
    1ee0:	19df      	adds	r7, r3, r7
    1ee2:	1cbc      	adds	r4, r7, #2
    1ee4:	2c12      	cmp	r4, #18
    1ee6:	dd03      	ble.n	1ef0 <fp_display+0x748>
    1ee8:	9c2b      	ldr	r4, [sp, #172]	; 0xac
    1eea:	3f11      	subs	r7, #17
    1eec:	6027      	str	r7, [r4, #0]
    1eee:	2413      	movs	r4, #19
    1ef0:	f41b 6f00 	tst.w	fp, #2048	; 0x800
    1ef4:	d109      	bne.n	1f0a <fp_display+0x762>
    1ef6:	4630      	mov	r0, r6
    1ef8:	4621      	mov	r1, r4
    1efa:	f7ff fbe0 	bl	16be <fp_round>
    1efe:	b120      	cbz	r0, 1f0a <fp_display+0x762>
    1f00:	3401      	adds	r4, #1
    1f02:	3d01      	subs	r5, #1
    1f04:	d101      	bne.n	1f0a <fp_display+0x762>
    1f06:	7873      	ldrb	r3, [r6, #1]
    1f08:	e00b      	b.n	1f22 <fp_display+0x77a>
    1f0a:	2d01      	cmp	r5, #1
    1f0c:	4623      	mov	r3, r4
    1f0e:	d110      	bne.n	1f32 <fp_display+0x78a>
    1f10:	e003      	b.n	1f1a <fp_display+0x772>
    1f12:	5cf1      	ldrb	r1, [r6, r3]
    1f14:	18f2      	adds	r2, r6, r3
    1f16:	7051      	strb	r1, [r2, #1]
    1f18:	3b01      	subs	r3, #1
    1f1a:	2b00      	cmp	r3, #0
    1f1c:	dcf9      	bgt.n	1f12 <fp_display+0x76a>
    1f1e:	3401      	adds	r4, #1
    1f20:	2330      	movs	r3, #48	; 0x30
    1f22:	7033      	strb	r3, [r6, #0]
    1f24:	232e      	movs	r3, #46	; 0x2e
    1f26:	7073      	strb	r3, [r6, #1]
    1f28:	e00f      	b.n	1f4a <fp_display+0x7a2>
    1f2a:	5cf1      	ldrb	r1, [r6, r3]
    1f2c:	18f2      	adds	r2, r6, r3
    1f2e:	7091      	strb	r1, [r2, #2]
    1f30:	3b01      	subs	r3, #1
    1f32:	2b00      	cmp	r3, #0
    1f34:	dcf9      	bgt.n	1f2a <fp_display+0x782>
    1f36:	2330      	movs	r3, #48	; 0x30
    1f38:	7033      	strb	r3, [r6, #0]
    1f3a:	982a      	ldr	r0, [sp, #168]	; 0xa8
    1f3c:	232e      	movs	r3, #46	; 0x2e
    1f3e:	7073      	strb	r3, [r6, #1]
    1f40:	3d01      	subs	r5, #1
    1f42:	233c      	movs	r3, #60	; 0x3c
    1f44:	70b3      	strb	r3, [r6, #2]
    1f46:	3402      	adds	r4, #2
    1f48:	6005      	str	r5, [r0, #0]
    1f4a:	9d2b      	ldr	r5, [sp, #172]	; 0xac
    1f4c:	682b      	ldr	r3, [r5, #0]
    1f4e:	2b00      	cmp	r3, #0
    1f50:	dc39      	bgt.n	1fc6 <fp_display+0x81e>
    1f52:	e06b      	b.n	202c <fp_display+0x884>
    1f54:	18fd      	adds	r5, r7, r3
    1f56:	1cac      	adds	r4, r5, #2
    1f58:	2c12      	cmp	r4, #18
    1f5a:	f40b 6300 	and.w	r3, fp, #2048	; 0x800
    1f5e:	dd50      	ble.n	2002 <fp_display+0x85a>
    1f60:	b9d3      	cbnz	r3, 1f98 <fp_display+0x7f0>
    1f62:	4630      	mov	r0, r6
    1f64:	2113      	movs	r1, #19
    1f66:	f7ff fbaa 	bl	16be <fp_round>
    1f6a:	b1a8      	cbz	r0, 1f98 <fp_display+0x7f0>
    1f6c:	3701      	adds	r7, #1
    1f6e:	2414      	movs	r4, #20
    1f70:	e013      	b.n	1f9a <fp_display+0x7f2>
    1f72:	bf00      	nop
    1f74:	00004036 	.word	0x00004036
    1f78:	00004006 	.word	0x00004006
    1f7c:	00004084 	.word	0x00004084
    1f80:	00004004 	.word	0x00004004
    1f84:	00004010 	.word	0x00004010
    1f88:	00004008 	.word	0x00004008
    1f8c:	00004018 	.word	0x00004018
    1f90:	00004027 	.word	0x00004027
    1f94:	fffffc18 	.word	0xfffffc18
    1f98:	2413      	movs	r4, #19
    1f9a:	1e61      	subs	r1, r4, #1
    1f9c:	2300      	movs	r3, #0
    1f9e:	428f      	cmp	r7, r1
    1fa0:	4632      	mov	r2, r6
    1fa2:	da14      	bge.n	1fce <fp_display+0x826>
    1fa4:	7851      	ldrb	r1, [r2, #1]
    1fa6:	3301      	adds	r3, #1
    1fa8:	42bb      	cmp	r3, r7
    1faa:	f802 1b01 	strb.w	r1, [r2], #1
    1fae:	ddf9      	ble.n	1fa4 <fp_display+0x7fc>
    1fb0:	19f3      	adds	r3, r6, r7
    1fb2:	222e      	movs	r2, #46	; 0x2e
    1fb4:	705a      	strb	r2, [r3, #1]
    1fb6:	f8da 3000 	ldr.w	r3, [sl]
    1fba:	9d2b      	ldr	r5, [sp, #172]	; 0xac
    1fbc:	18ff      	adds	r7, r7, r3
    1fbe:	3f11      	subs	r7, #17
    1fc0:	602f      	str	r7, [r5, #0]
    1fc2:	2f00      	cmp	r7, #0
    1fc4:	d032      	beq.n	202c <fp_display+0x884>
    1fc6:	233e      	movs	r3, #62	; 0x3e
    1fc8:	5533      	strb	r3, [r6, r4]
    1fca:	3401      	adds	r4, #1
    1fcc:	e02e      	b.n	202c <fp_display+0x884>
    1fce:	7850      	ldrb	r0, [r2, #1]
    1fd0:	3301      	adds	r3, #1
    1fd2:	428b      	cmp	r3, r1
    1fd4:	f802 0b01 	strb.w	r0, [r2], #1
    1fd8:	dbf9      	blt.n	1fce <fp_display+0x826>
    1fda:	1933      	adds	r3, r6, r4
    1fdc:	223c      	movs	r2, #60	; 0x3c
    1fde:	1b3f      	subs	r7, r7, r4
    1fe0:	9d2a      	ldr	r5, [sp, #168]	; 0xa8
    1fe2:	f803 2c01 	strb.w	r2, [r3, #-1]
    1fe6:	3702      	adds	r7, #2
    1fe8:	232e      	movs	r3, #46	; 0x2e
    1fea:	602f      	str	r7, [r5, #0]
    1fec:	5533      	strb	r3, [r6, r4]
    1fee:	f8da 2000 	ldr.w	r2, [sl]
    1ff2:	1c63      	adds	r3, r4, #1
    1ff4:	b1ca      	cbz	r2, 202a <fp_display+0x882>
    1ff6:	9d2b      	ldr	r5, [sp, #172]	; 0xac
    1ff8:	3402      	adds	r4, #2
    1ffa:	602a      	str	r2, [r5, #0]
    1ffc:	223e      	movs	r2, #62	; 0x3e
    1ffe:	54f2      	strb	r2, [r6, r3]
    2000:	e014      	b.n	202c <fp_display+0x884>
    2002:	b933      	cbnz	r3, 2012 <fp_display+0x86a>
    2004:	4630      	mov	r0, r6
    2006:	4621      	mov	r1, r4
    2008:	f7ff fb59 	bl	16be <fp_round>
    200c:	b108      	cbz	r0, 2012 <fp_display+0x86a>
    200e:	3701      	adds	r7, #1
    2010:	1cec      	adds	r4, r5, #3
    2012:	4632      	mov	r2, r6
    2014:	2300      	movs	r3, #0
    2016:	7851      	ldrb	r1, [r2, #1]
    2018:	3301      	adds	r3, #1
    201a:	42bb      	cmp	r3, r7
    201c:	f802 1b01 	strb.w	r1, [r2], #1
    2020:	ddf9      	ble.n	2016 <fp_display+0x86e>
    2022:	19f7      	adds	r7, r6, r7
    2024:	232e      	movs	r3, #46	; 0x2e
    2026:	707b      	strb	r3, [r7, #1]
    2028:	e000      	b.n	202c <fp_display+0x884>
    202a:	461c      	mov	r4, r3
    202c:	f41b 6f00 	tst.w	fp, #2048	; 0x800
    2030:	d008      	beq.n	2044 <fp_display+0x89c>
    2032:	f01b 0f08 	tst.w	fp, #8
    2036:	d135      	bne.n	20a4 <fp_display+0x8fc>
    2038:	4621      	mov	r1, r4
    203a:	4630      	mov	r0, r6
    203c:	f7ff fb30 	bl	16a0 <lose_trailing_zeros>
    2040:	4604      	mov	r4, r0
    2042:	e02f      	b.n	20a4 <fp_display+0x8fc>
    2044:	f8da 3000 	ldr.w	r3, [sl]
    2048:	bb63      	cbnz	r3, 20a4 <fp_display+0x8fc>
    204a:	f01b 0f08 	tst.w	fp, #8
    204e:	d129      	bne.n	20a4 <fp_display+0x8fc>
    2050:	3c01      	subs	r4, #1
    2052:	e027      	b.n	20a4 <fp_display+0x8fc>
    2054:	2467      	movs	r4, #103	; 0x67
    2056:	9405      	str	r4, [sp, #20]
    2058:	f8da 3000 	ldr.w	r3, [sl]
    205c:	f44b 6b00 	orr.w	fp, fp, #2048	; 0x800
    2060:	2b00      	cmp	r3, #0
    2062:	dc02      	bgt.n	206a <fp_display+0x8c2>
    2064:	2301      	movs	r3, #1
    2066:	f8ca 3000 	str.w	r3, [sl]
    206a:	f8da 1000 	ldr.w	r1, [sl]
    206e:	2911      	cmp	r1, #17
    2070:	dc01      	bgt.n	2076 <fp_display+0x8ce>
    2072:	3101      	adds	r1, #1
    2074:	e000      	b.n	2078 <fp_display+0x8d0>
    2076:	2112      	movs	r1, #18
    2078:	4630      	mov	r0, r6
    207a:	f7ff fb20 	bl	16be <fp_round>
    207e:	f8da 3000 	ldr.w	r3, [sl]
    2082:	183f      	adds	r7, r7, r0
    2084:	429f      	cmp	r7, r3
    2086:	da06      	bge.n	2096 <fp_display+0x8ee>
    2088:	1d3c      	adds	r4, r7, #4
    208a:	db04      	blt.n	2096 <fp_display+0x8ee>
    208c:	43fa      	mvns	r2, r7
    208e:	189b      	adds	r3, r3, r2
    2090:	f8ca 3000 	str.w	r3, [sl]
    2094:	e712      	b.n	1ebc <fp_display+0x714>
    2096:	9d05      	ldr	r5, [sp, #20]
    2098:	3b01      	subs	r3, #1
    209a:	3d02      	subs	r5, #2
    209c:	f8ca 3000 	str.w	r3, [sl]
    20a0:	9505      	str	r5, [sp, #20]
    20a2:	e6a1      	b.n	1de8 <fp_display+0x640>
    20a4:	4620      	mov	r0, r4
    20a6:	b01f      	add	sp, #124	; 0x7c
    20a8:	e8bd 8ff0 	ldmia.w	sp!, {r4, r5, r6, r7, r8, r9, sl, fp, pc}
    20ac:	f3af 8000 	nop.w

000020b0 <_initio>:
    20b0:	b510      	push	{r4, lr}
    20b2:	2100      	movs	r1, #0
    20b4:	f44f 72a0 	mov.w	r2, #320	; 0x140
    20b8:	481e      	ldr	r0, [pc, #120]	; (2134 <_initio+0x84>)
    20ba:	f7ff faef 	bl	169c <memset>
    20be:	20c0      	movs	r0, #192	; 0xc0
    20c0:	f001 f9ca 	bl	3458 <_Csys_alloc>
    20c4:	4c1c      	ldr	r4, [pc, #112]	; (2138 <_initio+0x88>)
    20c6:	2100      	movs	r1, #0
    20c8:	22c0      	movs	r2, #192	; 0xc0
    20ca:	6020      	str	r0, [r4, #0]
    20cc:	f7ff fae6 	bl	169c <memset>
    20d0:	4b18      	ldr	r3, [pc, #96]	; (2134 <_initio+0x84>)
    20d2:	6822      	ldr	r2, [r4, #0]
    20d4:	f503 71a0 	add.w	r1, r3, #320	; 0x140
    20d8:	625a      	str	r2, [r3, #36]	; 0x24
    20da:	3328      	adds	r3, #40	; 0x28
    20dc:	3218      	adds	r2, #24
    20de:	428b      	cmp	r3, r1
    20e0:	d1fa      	bne.n	20d8 <_initio+0x28>
    20e2:	2000      	movs	r0, #0
    20e4:	4915      	ldr	r1, [pc, #84]	; (213c <_initio+0x8c>)
    20e6:	4a13      	ldr	r2, [pc, #76]	; (2134 <_initio+0x84>)
    20e8:	f001 f855 	bl	3196 <_fdopen>
    20ec:	2100      	movs	r1, #0
    20ee:	f44f 5380 	mov.w	r3, #4096	; 0x1000
    20f2:	f44f 6280 	mov.w	r2, #1024	; 0x400
    20f6:	480f      	ldr	r0, [pc, #60]	; (2134 <_initio+0x84>)
    20f8:	f000 feee 	bl	2ed8 <setvbuf>
    20fc:	2001      	movs	r0, #1
    20fe:	4910      	ldr	r1, [pc, #64]	; (2140 <_initio+0x90>)
    2100:	4a10      	ldr	r2, [pc, #64]	; (2144 <_initio+0x94>)
    2102:	f001 f848 	bl	3196 <_fdopen>
    2106:	2100      	movs	r1, #0
    2108:	f44f 5380 	mov.w	r3, #4096	; 0x1000
    210c:	f44f 6280 	mov.w	r2, #1024	; 0x400
    2110:	480c      	ldr	r0, [pc, #48]	; (2144 <_initio+0x94>)
    2112:	f000 fee1 	bl	2ed8 <setvbuf>
    2116:	2002      	movs	r0, #2
    2118:	4909      	ldr	r1, [pc, #36]	; (2140 <_initio+0x90>)
    211a:	4a0b      	ldr	r2, [pc, #44]	; (2148 <_initio+0x98>)
    211c:	f001 f83b 	bl	3196 <_fdopen>
    2120:	4809      	ldr	r0, [pc, #36]	; (2148 <_initio+0x98>)
    2122:	2100      	movs	r1, #0
    2124:	f44f 6280 	mov.w	r2, #1024	; 0x400
    2128:	f44f 5380 	mov.w	r3, #4096	; 0x1000
    212c:	e8bd 4010 	ldmia.w	sp!, {r4, lr}
    2130:	f000 bed2 	b.w	2ed8 <setvbuf>
    2134:	10002978 	.word	0x10002978
    2138:	10002974 	.word	0x10002974
    213c:	00004038 	.word	0x00004038
    2140:	0000403a 	.word	0x0000403a
    2144:	100029a0 	.word	0x100029a0
    2148:	100029c8 	.word	0x100029c8

0000214c <memcmp>:
    214c:	ea41 0300 	orr.w	r3, r1, r0
    2150:	079b      	lsls	r3, r3, #30
    2152:	b530      	push	{r4, r5, lr}
    2154:	d111      	bne.n	217a <memcmp+0x2e>
    2156:	e002      	b.n	215e <memcmp+0x12>
    2158:	3004      	adds	r0, #4
    215a:	3104      	adds	r1, #4
    215c:	3a04      	subs	r2, #4
    215e:	2a03      	cmp	r2, #3
    2160:	d90b      	bls.n	217a <memcmp+0x2e>
    2162:	6804      	ldr	r4, [r0, #0]
    2164:	680b      	ldr	r3, [r1, #0]
    2166:	429c      	cmp	r4, r3
    2168:	d0f6      	beq.n	2158 <memcmp+0xc>
    216a:	e006      	b.n	217a <memcmp+0x2e>
    216c:	5cc5      	ldrb	r5, [r0, r3]
    216e:	5ccc      	ldrb	r4, [r1, r3]
    2170:	3301      	adds	r3, #1
    2172:	42a5      	cmp	r5, r4
    2174:	d002      	beq.n	217c <memcmp+0x30>
    2176:	1b28      	subs	r0, r5, r4
    2178:	bd30      	pop	{r4, r5, pc}
    217a:	2300      	movs	r3, #0
    217c:	4293      	cmp	r3, r2
    217e:	d1f5      	bne.n	216c <memcmp+0x20>
    2180:	2000      	movs	r0, #0
    2182:	bd30      	pop	{r4, r5, pc}

00002184 <__vfprintf>:
    2184:	e92d 4ff0 	stmdb	sp!, {r4, r5, r6, r7, r8, r9, sl, fp, lr}
    2188:	b0b1      	sub	sp, #196	; 0xc4
    218a:	9c3b      	ldr	r4, [sp, #236]	; 0xec
    218c:	4606      	mov	r6, r0
    218e:	e9cd 230e 	strd	r2, r3, [sp, #56]	; 0x38
    2192:	f8dd a0e8 	ldr.w	sl, [sp, #232]	; 0xe8
    2196:	941e      	str	r4, [sp, #120]	; 0x78
    2198:	2500      	movs	r5, #0
    219a:	f000 be92 	b.w	2ec2 <__vfprintf+0xd3e>
    219e:	2825      	cmp	r0, #37	; 0x25
    21a0:	f10a 0a01 	add.w	sl, sl, #1
    21a4:	d102      	bne.n	21ac <__vfprintf+0x28>
    21a6:	4652      	mov	r2, sl
    21a8:	2500      	movs	r5, #0
    21aa:	e01a      	b.n	21e2 <__vfprintf+0x5e>
    21ac:	9a0d      	ldr	r2, [sp, #52]	; 0x34
    21ae:	e9dd 450e 	ldrd	r4, r5, [sp, #56]	; 0x38
    21b2:	17d3      	asrs	r3, r2, #31
    21b4:	1c57      	adds	r7, r2, #1
    21b6:	42a2      	cmp	r2, r4
    21b8:	eb73 0505 	sbcs.w	r5, r3, r5
    21bc:	970d      	str	r7, [sp, #52]	; 0x34
    21be:	f280 8681 	bge.w	2ec4 <__vfprintf+0xd40>
    21c2:	68b3      	ldr	r3, [r6, #8]
    21c4:	3b01      	subs	r3, #1
    21c6:	2b00      	cmp	r3, #0
    21c8:	60b3      	str	r3, [r6, #8]
    21ca:	db05      	blt.n	21d8 <__vfprintf+0x54>
    21cc:	6833      	ldr	r3, [r6, #0]
    21ce:	f803 0b01 	strb.w	r0, [r3], #1
    21d2:	6033      	str	r3, [r6, #0]
    21d4:	f000 be76 	b.w	2ec4 <__vfprintf+0xd40>
    21d8:	4631      	mov	r1, r6
    21da:	f000 ff35 	bl	3048 <__flsbuf>
    21de:	f000 be71 	b.w	2ec4 <__vfprintf+0xd40>
    21e2:	4610      	mov	r0, r2
    21e4:	f812 3b01 	ldrb.w	r3, [r2], #1
    21e8:	2b2b      	cmp	r3, #43	; 0x2b
    21ea:	461c      	mov	r4, r3
    21ec:	4692      	mov	sl, r2
    21ee:	d00d      	beq.n	220c <__vfprintf+0x88>
    21f0:	d804      	bhi.n	21fc <__vfprintf+0x78>
    21f2:	2b20      	cmp	r3, #32
    21f4:	d00d      	beq.n	2212 <__vfprintf+0x8e>
    21f6:	2b23      	cmp	r3, #35	; 0x23
    21f8:	d114      	bne.n	2224 <__vfprintf+0xa0>
    21fa:	e00d      	b.n	2218 <__vfprintf+0x94>
    21fc:	2b2d      	cmp	r3, #45	; 0x2d
    21fe:	d002      	beq.n	2206 <__vfprintf+0x82>
    2200:	2b30      	cmp	r3, #48	; 0x30
    2202:	d10f      	bne.n	2224 <__vfprintf+0xa0>
    2204:	e00b      	b.n	221e <__vfprintf+0x9a>
    2206:	f045 0501 	orr.w	r5, r5, #1
    220a:	e7ea      	b.n	21e2 <__vfprintf+0x5e>
    220c:	f045 0502 	orr.w	r5, r5, #2
    2210:	e7e7      	b.n	21e2 <__vfprintf+0x5e>
    2212:	f045 0504 	orr.w	r5, r5, #4
    2216:	e7e4      	b.n	21e2 <__vfprintf+0x5e>
    2218:	f045 0508 	orr.w	r5, r5, #8
    221c:	e7e1      	b.n	21e2 <__vfprintf+0x5e>
    221e:	f445 7500 	orr.w	r5, r5, #512	; 0x200
    2222:	e7de      	b.n	21e2 <__vfprintf+0x5e>
    2224:	2b2a      	cmp	r3, #42	; 0x2a
    2226:	d10c      	bne.n	2242 <__vfprintf+0xbe>
    2228:	9f1e      	ldr	r7, [sp, #120]	; 0x78
    222a:	6839      	ldr	r1, [r7, #0]
    222c:	1d3b      	adds	r3, r7, #4
    222e:	2900      	cmp	r1, #0
    2230:	da02      	bge.n	2238 <__vfprintf+0xb4>
    2232:	4249      	negs	r1, r1
    2234:	f085 0501 	eor.w	r5, r5, #1
    2238:	7844      	ldrb	r4, [r0, #1]
    223a:	f100 0a02 	add.w	sl, r0, #2
    223e:	931e      	str	r3, [sp, #120]	; 0x78
    2240:	e00b      	b.n	225a <__vfprintf+0xd6>
    2242:	2100      	movs	r1, #0
    2244:	200a      	movs	r0, #10
    2246:	f1a4 0330 	sub.w	r3, r4, #48	; 0x30
    224a:	b2da      	uxtb	r2, r3
    224c:	2a09      	cmp	r2, #9
    224e:	d804      	bhi.n	225a <__vfprintf+0xd6>
    2250:	fb00 3101 	mla	r1, r0, r1, r3
    2254:	f81a 4b01 	ldrb.w	r4, [sl], #1
    2258:	e7f5      	b.n	2246 <__vfprintf+0xc2>
    225a:	ea21 71e1 	bic.w	r1, r1, r1, asr #31
    225e:	2c2e      	cmp	r4, #46	; 0x2e
    2260:	9106      	str	r1, [sp, #24]
    2262:	d121      	bne.n	22a8 <__vfprintf+0x124>
    2264:	f89a 4000 	ldrb.w	r4, [sl]
    2268:	2c2a      	cmp	r4, #42	; 0x2a
    226a:	d107      	bne.n	227c <__vfprintf+0xf8>
    226c:	9c1e      	ldr	r4, [sp, #120]	; 0x78
    226e:	1d22      	adds	r2, r4, #4
    2270:	6821      	ldr	r1, [r4, #0]
    2272:	f89a 4001 	ldrb.w	r4, [sl, #1]
    2276:	f10a 0a02 	add.w	sl, sl, #2
    227a:	e00f      	b.n	229c <__vfprintf+0x118>
    227c:	4650      	mov	r0, sl
    227e:	2100      	movs	r1, #0
    2280:	270a      	movs	r7, #10
    2282:	f1a4 0330 	sub.w	r3, r4, #48	; 0x30
    2286:	b2da      	uxtb	r2, r3
    2288:	2a09      	cmp	r2, #9
    228a:	f10a 0a01 	add.w	sl, sl, #1
    228e:	d804      	bhi.n	229a <__vfprintf+0x116>
    2290:	7844      	ldrb	r4, [r0, #1]
    2292:	fb07 3101 	mla	r1, r7, r1, r3
    2296:	4650      	mov	r0, sl
    2298:	e7f3      	b.n	2282 <__vfprintf+0xfe>
    229a:	9a1e      	ldr	r2, [sp, #120]	; 0x78
    229c:	2900      	cmp	r1, #0
    229e:	db04      	blt.n	22aa <__vfprintf+0x126>
    22a0:	f045 0510 	orr.w	r5, r5, #16
    22a4:	460f      	mov	r7, r1
    22a6:	e001      	b.n	22ac <__vfprintf+0x128>
    22a8:	9a1e      	ldr	r2, [sp, #120]	; 0x78
    22aa:	2700      	movs	r7, #0
    22ac:	2c6c      	cmp	r4, #108	; 0x6c
    22ae:	d10e      	bne.n	22ce <__vfprintf+0x14a>
    22b0:	f89a 4000 	ldrb.w	r4, [sl]
    22b4:	2c6c      	cmp	r4, #108	; 0x6c
    22b6:	d106      	bne.n	22c6 <__vfprintf+0x142>
    22b8:	f89a 4001 	ldrb.w	r4, [sl, #1]
    22bc:	f045 0560 	orr.w	r5, r5, #96	; 0x60
    22c0:	f10a 0a02 	add.w	sl, sl, #2
    22c4:	e003      	b.n	22ce <__vfprintf+0x14a>
    22c6:	f10a 0a01 	add.w	sl, sl, #1
    22ca:	f045 0520 	orr.w	r5, r5, #32
    22ce:	2c4c      	cmp	r4, #76	; 0x4c
    22d0:	d001      	beq.n	22d6 <__vfprintf+0x152>
    22d2:	2c71      	cmp	r4, #113	; 0x71
    22d4:	d104      	bne.n	22e0 <__vfprintf+0x15c>
    22d6:	f81a 4b01 	ldrb.w	r4, [sl], #1
    22da:	f045 0560 	orr.w	r5, r5, #96	; 0x60
    22de:	e01c      	b.n	231a <__vfprintf+0x196>
    22e0:	2c68      	cmp	r4, #104	; 0x68
    22e2:	d10f      	bne.n	2304 <__vfprintf+0x180>
    22e4:	f89a 4000 	ldrb.w	r4, [sl]
    22e8:	2c68      	cmp	r4, #104	; 0x68
    22ea:	d106      	bne.n	22fa <__vfprintf+0x176>
    22ec:	f89a 4001 	ldrb.w	r4, [sl, #1]
    22f0:	f445 7580 	orr.w	r5, r5, #256	; 0x100
    22f4:	f10a 0a02 	add.w	sl, sl, #2
    22f8:	e00f      	b.n	231a <__vfprintf+0x196>
    22fa:	f10a 0a01 	add.w	sl, sl, #1
    22fe:	f045 0580 	orr.w	r5, r5, #128	; 0x80
    2302:	e00a      	b.n	231a <__vfprintf+0x196>
    2304:	2c6a      	cmp	r4, #106	; 0x6a
    2306:	d102      	bne.n	230e <__vfprintf+0x18a>
    2308:	f045 0540 	orr.w	r5, r5, #64	; 0x40
    230c:	e003      	b.n	2316 <__vfprintf+0x192>
    230e:	2c7a      	cmp	r4, #122	; 0x7a
    2310:	d001      	beq.n	2316 <__vfprintf+0x192>
    2312:	2c74      	cmp	r4, #116	; 0x74
    2314:	d101      	bne.n	231a <__vfprintf+0x196>
    2316:	f81a 4b01 	ldrb.w	r4, [sl], #1
    231a:	2c67      	cmp	r4, #103	; 0x67
    231c:	dc19      	bgt.n	2352 <__vfprintf+0x1ce>
    231e:	2c65      	cmp	r4, #101	; 0x65
    2320:	f280 828c 	bge.w	283c <__vfprintf+0x6b8>
    2324:	2c58      	cmp	r4, #88	; 0x58
    2326:	f000 81a1 	beq.w	266c <__vfprintf+0x4e8>
    232a:	dc0b      	bgt.n	2344 <__vfprintf+0x1c0>
    232c:	2c45      	cmp	r4, #69	; 0x45
    232e:	f000 8285 	beq.w	283c <__vfprintf+0x6b8>
    2332:	dc04      	bgt.n	233e <__vfprintf+0x1ba>
    2334:	2c00      	cmp	r4, #0
    2336:	f000 80aa 	beq.w	248e <__vfprintf+0x30a>
    233a:	2c41      	cmp	r4, #65	; 0x41
    233c:	e007      	b.n	234e <__vfprintf+0x1ca>
    233e:	2c47      	cmp	r4, #71	; 0x47
    2340:	d120      	bne.n	2384 <__vfprintf+0x200>
    2342:	e27b      	b.n	283c <__vfprintf+0x6b8>
    2344:	2c63      	cmp	r4, #99	; 0x63
    2346:	d019      	beq.n	237c <__vfprintf+0x1f8>
    2348:	f300 823b 	bgt.w	27c2 <__vfprintf+0x63e>
    234c:	2c61      	cmp	r4, #97	; 0x61
    234e:	d119      	bne.n	2384 <__vfprintf+0x200>
    2350:	e26f      	b.n	2832 <__vfprintf+0x6ae>
    2352:	2c70      	cmp	r4, #112	; 0x70
    2354:	f000 81dc 	beq.w	2710 <__vfprintf+0x58c>
    2358:	dc07      	bgt.n	236a <__vfprintf+0x1e6>
    235a:	2c6e      	cmp	r4, #110	; 0x6e
    235c:	f000 809c 	beq.w	2498 <__vfprintf+0x314>
    2360:	f300 81e0 	bgt.w	2724 <__vfprintf+0x5a0>
    2364:	2c69      	cmp	r4, #105	; 0x69
    2366:	d10d      	bne.n	2384 <__vfprintf+0x200>
    2368:	e22b      	b.n	27c2 <__vfprintf+0x63e>
    236a:	2c75      	cmp	r4, #117	; 0x75
    236c:	f000 8206 	beq.w	277c <__vfprintf+0x5f8>
    2370:	2c78      	cmp	r4, #120	; 0x78
    2372:	f000 81a4 	beq.w	26be <__vfprintf+0x53a>
    2376:	2c73      	cmp	r4, #115	; 0x73
    2378:	d104      	bne.n	2384 <__vfprintf+0x200>
    237a:	e0ad      	b.n	24d8 <__vfprintf+0x354>
    237c:	1d17      	adds	r7, r2, #4
    237e:	971e      	str	r7, [sp, #120]	; 0x78
    2380:	6814      	ldr	r4, [r2, #0]
    2382:	e000      	b.n	2386 <__vfprintf+0x202>
    2384:	921e      	str	r2, [sp, #120]	; 0x78
    2386:	9806      	ldr	r0, [sp, #24]
    2388:	1e47      	subs	r7, r0, #1
    238a:	f015 0b01 	ands.w	fp, r5, #1
    238e:	d133      	bne.n	23f8 <__vfprintf+0x274>
    2390:	990d      	ldr	r1, [sp, #52]	; 0x34
    2392:	f415 7f00 	tst.w	r5, #512	; 0x200
    2396:	bf0c      	ite	eq
    2398:	2520      	moveq	r5, #32
    239a:	2530      	movne	r5, #48	; 0x30
    239c:	17ca      	asrs	r2, r1, #31
    239e:	f04f 0800 	mov.w	r8, #0
    23a2:	f04f 0900 	mov.w	r9, #0
    23a6:	9108      	str	r1, [sp, #32]
    23a8:	9209      	str	r2, [sp, #36]	; 0x24
    23aa:	e01f      	b.n	23ec <__vfprintf+0x268>
    23ac:	e9dd 2308 	ldrd	r2, r3, [sp, #32]
    23b0:	eb12 0208 	adds.w	r2, r2, r8
    23b4:	eb43 0309 	adc.w	r3, r3, r9
    23b8:	e9dd 010e 	ldrd	r0, r1, [sp, #56]	; 0x38
    23bc:	4282      	cmp	r2, r0
    23be:	eb73 0101 	sbcs.w	r1, r3, r1
    23c2:	da0d      	bge.n	23e0 <__vfprintf+0x25c>
    23c4:	68b3      	ldr	r3, [r6, #8]
    23c6:	3b01      	subs	r3, #1
    23c8:	2b00      	cmp	r3, #0
    23ca:	60b3      	str	r3, [r6, #8]
    23cc:	db04      	blt.n	23d8 <__vfprintf+0x254>
    23ce:	6833      	ldr	r3, [r6, #0]
    23d0:	f803 5b01 	strb.w	r5, [r3], #1
    23d4:	6033      	str	r3, [r6, #0]
    23d6:	e003      	b.n	23e0 <__vfprintf+0x25c>
    23d8:	4628      	mov	r0, r5
    23da:	4631      	mov	r1, r6
    23dc:	f000 fe34 	bl	3048 <__flsbuf>
    23e0:	2201      	movs	r2, #1
    23e2:	2300      	movs	r3, #0
    23e4:	eb18 0802 	adds.w	r8, r8, r2
    23e8:	eb49 0903 	adc.w	r9, r9, r3
    23ec:	980d      	ldr	r0, [sp, #52]	; 0x34
    23ee:	3f01      	subs	r7, #1
    23f0:	eb00 0308 	add.w	r3, r0, r8
    23f4:	d5da      	bpl.n	23ac <__vfprintf+0x228>
    23f6:	930d      	str	r3, [sp, #52]	; 0x34
    23f8:	9a0d      	ldr	r2, [sp, #52]	; 0x34
    23fa:	e9dd 010e 	ldrd	r0, r1, [sp, #56]	; 0x38
    23fe:	17d3      	asrs	r3, r2, #31
    2400:	1c55      	adds	r5, r2, #1
    2402:	4282      	cmp	r2, r0
    2404:	eb73 0101 	sbcs.w	r1, r3, r1
    2408:	950d      	str	r5, [sp, #52]	; 0x34
    240a:	da0d      	bge.n	2428 <__vfprintf+0x2a4>
    240c:	68b3      	ldr	r3, [r6, #8]
    240e:	3b01      	subs	r3, #1
    2410:	2b00      	cmp	r3, #0
    2412:	60b3      	str	r3, [r6, #8]
    2414:	db04      	blt.n	2420 <__vfprintf+0x29c>
    2416:	6833      	ldr	r3, [r6, #0]
    2418:	f803 4b01 	strb.w	r4, [r3], #1
    241c:	6033      	str	r3, [r6, #0]
    241e:	e003      	b.n	2428 <__vfprintf+0x2a4>
    2420:	4620      	mov	r0, r4
    2422:	4631      	mov	r1, r6
    2424:	f000 fe10 	bl	3048 <__flsbuf>
    2428:	f1bb 0f00 	cmp.w	fp, #0
    242c:	d122      	bne.n	2474 <__vfprintf+0x2f0>
    242e:	f000 bd49 	b.w	2ec4 <__vfprintf+0xd40>
    2432:	e9dd 2308 	ldrd	r2, r3, [sp, #32]
    2436:	eb12 0208 	adds.w	r2, r2, r8
    243a:	eb43 0309 	adc.w	r3, r3, r9
    243e:	e9dd 010e 	ldrd	r0, r1, [sp, #56]	; 0x38
    2442:	4282      	cmp	r2, r0
    2444:	eb73 0101 	sbcs.w	r1, r3, r1
    2448:	da0d      	bge.n	2466 <__vfprintf+0x2e2>
    244a:	68b3      	ldr	r3, [r6, #8]
    244c:	3b01      	subs	r3, #1
    244e:	2b00      	cmp	r3, #0
    2450:	60b3      	str	r3, [r6, #8]
    2452:	db04      	blt.n	245e <__vfprintf+0x2da>
    2454:	6833      	ldr	r3, [r6, #0]
    2456:	f803 5b01 	strb.w	r5, [r3], #1
    245a:	6033      	str	r3, [r6, #0]
    245c:	e003      	b.n	2466 <__vfprintf+0x2e2>
    245e:	2020      	movs	r0, #32
    2460:	4631      	mov	r1, r6
    2462:	f000 fdf1 	bl	3048 <__flsbuf>
    2466:	2201      	movs	r2, #1
    2468:	2300      	movs	r3, #0
    246a:	eb18 0802 	adds.w	r8, r8, r2
    246e:	eb49 0903 	adc.w	r9, r9, r3
    2472:	e009      	b.n	2488 <__vfprintf+0x304>
    2474:	9b0d      	ldr	r3, [sp, #52]	; 0x34
    2476:	463c      	mov	r4, r7
    2478:	17dd      	asrs	r5, r3, #31
    247a:	9509      	str	r5, [sp, #36]	; 0x24
    247c:	f04f 0800 	mov.w	r8, #0
    2480:	f04f 0900 	mov.w	r9, #0
    2484:	9308      	str	r3, [sp, #32]
    2486:	2520      	movs	r5, #32
    2488:	3c01      	subs	r4, #1
    248a:	d5d2      	bpl.n	2432 <__vfprintf+0x2ae>
    248c:	e0e7      	b.n	265e <__vfprintf+0x4da>
    248e:	f10a 3aff 	add.w	sl, sl, #4294967295
    2492:	921e      	str	r2, [sp, #120]	; 0x78
    2494:	f000 bd16 	b.w	2ec4 <__vfprintf+0xd40>
    2498:	f102 0304 	add.w	r3, r2, #4
    249c:	f015 0f40 	tst.w	r5, #64	; 0x40
    24a0:	931e      	str	r3, [sp, #120]	; 0x78
    24a2:	d006      	beq.n	24b2 <__vfprintf+0x32e>
    24a4:	9b0d      	ldr	r3, [sp, #52]	; 0x34
    24a6:	6811      	ldr	r1, [r2, #0]
    24a8:	17da      	asrs	r2, r3, #31
    24aa:	600b      	str	r3, [r1, #0]
    24ac:	604a      	str	r2, [r1, #4]
    24ae:	f000 bd09 	b.w	2ec4 <__vfprintf+0xd40>
    24b2:	06a8      	lsls	r0, r5, #26
    24b4:	6813      	ldr	r3, [r2, #0]
    24b6:	d40b      	bmi.n	24d0 <__vfprintf+0x34c>
    24b8:	05e9      	lsls	r1, r5, #23
    24ba:	d503      	bpl.n	24c4 <__vfprintf+0x340>
    24bc:	9f0d      	ldr	r7, [sp, #52]	; 0x34
    24be:	701f      	strb	r7, [r3, #0]
    24c0:	f000 bd00 	b.w	2ec4 <__vfprintf+0xd40>
    24c4:	062a      	lsls	r2, r5, #24
    24c6:	d503      	bpl.n	24d0 <__vfprintf+0x34c>
    24c8:	9c0d      	ldr	r4, [sp, #52]	; 0x34
    24ca:	801c      	strh	r4, [r3, #0]
    24cc:	f000 bcfa 	b.w	2ec4 <__vfprintf+0xd40>
    24d0:	9d0d      	ldr	r5, [sp, #52]	; 0x34
    24d2:	601d      	str	r5, [r3, #0]
    24d4:	f000 bcf6 	b.w	2ec4 <__vfprintf+0xd40>
    24d8:	f8d2 8000 	ldr.w	r8, [r2]
    24dc:	4ba1      	ldr	r3, [pc, #644]	; (2764 <__vfprintf+0x5e0>)
    24de:	1d14      	adds	r4, r2, #4
    24e0:	f1b8 0f00 	cmp.w	r8, #0
    24e4:	bf08      	it	eq
    24e6:	4698      	moveq	r8, r3
    24e8:	4640      	mov	r0, r8
    24ea:	941e      	str	r4, [sp, #120]	; 0x78
    24ec:	f000 fd3a 	bl	2f64 <strlen>
    24f0:	4604      	mov	r4, r0
    24f2:	06e8      	lsls	r0, r5, #27
    24f4:	d502      	bpl.n	24fc <__vfprintf+0x378>
    24f6:	42bc      	cmp	r4, r7
    24f8:	bfa8      	it	ge
    24fa:	463c      	movge	r4, r7
    24fc:	9806      	ldr	r0, [sp, #24]
    24fe:	f015 0b01 	ands.w	fp, r5, #1
    2502:	ebc4 0700 	rsb	r7, r4, r0
    2506:	d13f      	bne.n	2588 <__vfprintf+0x404>
    2508:	f415 7f00 	tst.w	r5, #512	; 0x200
    250c:	bf0c      	ite	eq
    250e:	2520      	moveq	r5, #32
    2510:	2530      	movne	r5, #48	; 0x30
    2512:	2300      	movs	r3, #0
    2514:	2200      	movs	r2, #0
    2516:	e9cd 2308 	strd	r2, r3, [sp, #32]
    251a:	9b0d      	ldr	r3, [sp, #52]	; 0x34
    251c:	f107 39ff 	add.w	r9, r7, #4294967295
    2520:	17d8      	asrs	r0, r3, #31
    2522:	9306      	str	r3, [sp, #24]
    2524:	9007      	str	r0, [sp, #28]
    2526:	e023      	b.n	2570 <__vfprintf+0x3ec>
    2528:	e9dd 0106 	ldrd	r0, r1, [sp, #24]
    252c:	e9dd 2308 	ldrd	r2, r3, [sp, #32]
    2530:	1812      	adds	r2, r2, r0
    2532:	eb43 0301 	adc.w	r3, r3, r1
    2536:	e9dd 010e 	ldrd	r0, r1, [sp, #56]	; 0x38
    253a:	4282      	cmp	r2, r0
    253c:	eb73 0101 	sbcs.w	r1, r3, r1
    2540:	da0d      	bge.n	255e <__vfprintf+0x3da>
    2542:	68b3      	ldr	r3, [r6, #8]
    2544:	3b01      	subs	r3, #1
    2546:	2b00      	cmp	r3, #0
    2548:	60b3      	str	r3, [r6, #8]
    254a:	db04      	blt.n	2556 <__vfprintf+0x3d2>
    254c:	6833      	ldr	r3, [r6, #0]
    254e:	f803 5b01 	strb.w	r5, [r3], #1
    2552:	6033      	str	r3, [r6, #0]
    2554:	e003      	b.n	255e <__vfprintf+0x3da>
    2556:	4628      	mov	r0, r5
    2558:	4631      	mov	r1, r6
    255a:	f000 fd75 	bl	3048 <__flsbuf>
    255e:	2001      	movs	r0, #1
    2560:	e9dd 2308 	ldrd	r2, r3, [sp, #32]
    2564:	2100      	movs	r1, #0
    2566:	1812      	adds	r2, r2, r0
    2568:	eb43 0301 	adc.w	r3, r3, r1
    256c:	e9cd 2308 	strd	r2, r3, [sp, #32]
    2570:	9908      	ldr	r1, [sp, #32]
    2572:	ebc1 0309 	rsb	r3, r1, r9
    2576:	2b00      	cmp	r3, #0
    2578:	dad6      	bge.n	2528 <__vfprintf+0x3a4>
    257a:	9d0d      	ldr	r5, [sp, #52]	; 0x34
    257c:	ea27 73e7 	bic.w	r3, r7, r7, asr #31
    2580:	18ed      	adds	r5, r5, r3
    2582:	950d      	str	r5, [sp, #52]	; 0x34
    2584:	ebc3 0709 	rsb	r7, r3, r9
    2588:	2300      	movs	r3, #0
    258a:	2200      	movs	r2, #0
    258c:	e9cd 2308 	strd	r2, r3, [sp, #32]
    2590:	9b0d      	ldr	r3, [sp, #52]	; 0x34
    2592:	17dd      	asrs	r5, r3, #31
    2594:	9306      	str	r3, [sp, #24]
    2596:	9507      	str	r5, [sp, #28]
    2598:	e027      	b.n	25ea <__vfprintf+0x466>
    259a:	e9dd 0106 	ldrd	r0, r1, [sp, #24]
    259e:	e9dd 2308 	ldrd	r2, r3, [sp, #32]
    25a2:	1812      	adds	r2, r2, r0
    25a4:	eb43 0301 	adc.w	r3, r3, r1
    25a8:	e9dd 010e 	ldrd	r0, r1, [sp, #56]	; 0x38
    25ac:	4282      	cmp	r2, r0
    25ae:	eb73 0101 	sbcs.w	r1, r3, r1
    25b2:	da11      	bge.n	25d8 <__vfprintf+0x454>
    25b4:	68b3      	ldr	r3, [r6, #8]
    25b6:	9a08      	ldr	r2, [sp, #32]
    25b8:	3b01      	subs	r3, #1
    25ba:	2b00      	cmp	r3, #0
    25bc:	60b3      	str	r3, [r6, #8]
    25be:	eb08 0302 	add.w	r3, r8, r2
    25c2:	db05      	blt.n	25d0 <__vfprintf+0x44c>
    25c4:	781a      	ldrb	r2, [r3, #0]
    25c6:	6833      	ldr	r3, [r6, #0]
    25c8:	f803 2b01 	strb.w	r2, [r3], #1
    25cc:	6033      	str	r3, [r6, #0]
    25ce:	e003      	b.n	25d8 <__vfprintf+0x454>
    25d0:	7818      	ldrb	r0, [r3, #0]
    25d2:	4631      	mov	r1, r6
    25d4:	f000 fd38 	bl	3048 <__flsbuf>
    25d8:	2001      	movs	r0, #1
    25da:	e9dd 2308 	ldrd	r2, r3, [sp, #32]
    25de:	2100      	movs	r1, #0
    25e0:	1812      	adds	r2, r2, r0
    25e2:	eb43 0301 	adc.w	r3, r3, r1
    25e6:	e9cd 2308 	strd	r2, r3, [sp, #32]
    25ea:	9908      	ldr	r1, [sp, #32]
    25ec:	428c      	cmp	r4, r1
    25ee:	dcd4      	bgt.n	259a <__vfprintf+0x416>
    25f0:	9d0d      	ldr	r5, [sp, #52]	; 0x34
    25f2:	2c00      	cmp	r4, #0
    25f4:	bfa8      	it	ge
    25f6:	192d      	addge	r5, r5, r4
    25f8:	950d      	str	r5, [sp, #52]	; 0x34
    25fa:	f1bb 0f00 	cmp.w	fp, #0
    25fe:	d122      	bne.n	2646 <__vfprintf+0x4c2>
    2600:	f000 bc60 	b.w	2ec4 <__vfprintf+0xd40>
    2604:	e9dd 2308 	ldrd	r2, r3, [sp, #32]
    2608:	eb12 0208 	adds.w	r2, r2, r8
    260c:	eb43 0309 	adc.w	r3, r3, r9
    2610:	e9dd 010e 	ldrd	r0, r1, [sp, #56]	; 0x38
    2614:	4282      	cmp	r2, r0
    2616:	eb73 0101 	sbcs.w	r1, r3, r1
    261a:	da0d      	bge.n	2638 <__vfprintf+0x4b4>
    261c:	68b3      	ldr	r3, [r6, #8]
    261e:	3b01      	subs	r3, #1
    2620:	2b00      	cmp	r3, #0
    2622:	60b3      	str	r3, [r6, #8]
    2624:	db04      	blt.n	2630 <__vfprintf+0x4ac>
    2626:	6833      	ldr	r3, [r6, #0]
    2628:	f803 5b01 	strb.w	r5, [r3], #1
    262c:	6033      	str	r3, [r6, #0]
    262e:	e003      	b.n	2638 <__vfprintf+0x4b4>
    2630:	2020      	movs	r0, #32
    2632:	4631      	mov	r1, r6
    2634:	f000 fd08 	bl	3048 <__flsbuf>
    2638:	2201      	movs	r2, #1
    263a:	2300      	movs	r3, #0
    263c:	eb18 0802 	adds.w	r8, r8, r2
    2640:	eb49 0903 	adc.w	r9, r9, r3
    2644:	e009      	b.n	265a <__vfprintf+0x4d6>
    2646:	9b0d      	ldr	r3, [sp, #52]	; 0x34
    2648:	463c      	mov	r4, r7
    264a:	17dd      	asrs	r5, r3, #31
    264c:	9509      	str	r5, [sp, #36]	; 0x24
    264e:	f04f 0800 	mov.w	r8, #0
    2652:	f04f 0900 	mov.w	r9, #0
    2656:	9308      	str	r3, [sp, #32]
    2658:	2520      	movs	r5, #32
    265a:	3c01      	subs	r4, #1
    265c:	d5d2      	bpl.n	2604 <__vfprintf+0x480>
    265e:	9c0d      	ldr	r4, [sp, #52]	; 0x34
    2660:	2f00      	cmp	r7, #0
    2662:	bfa8      	it	ge
    2664:	19e4      	addge	r4, r4, r7
    2666:	940d      	str	r4, [sp, #52]	; 0x34
    2668:	f000 bc2c 	b.w	2ec4 <__vfprintf+0xd40>
    266c:	0669      	lsls	r1, r5, #25
    266e:	d508      	bpl.n	2682 <__vfprintf+0x4fe>
    2670:	1dd3      	adds	r3, r2, #7
    2672:	f023 0307 	bic.w	r3, r3, #7
    2676:	f103 0008 	add.w	r0, r3, #8
    267a:	901e      	str	r0, [sp, #120]	; 0x78
    267c:	e9d3 8900 	ldrd	r8, r9, [r3]
    2680:	e005      	b.n	268e <__vfprintf+0x50a>
    2682:	6813      	ldr	r3, [r2, #0]
    2684:	1d11      	adds	r1, r2, #4
    2686:	911e      	str	r1, [sp, #120]	; 0x78
    2688:	4698      	mov	r8, r3
    268a:	f04f 0900 	mov.w	r9, #0
    268e:	062a      	lsls	r2, r5, #24
    2690:	d502      	bpl.n	2698 <__vfprintf+0x514>
    2692:	fa1f f888 	uxth.w	r8, r8
    2696:	e003      	b.n	26a0 <__vfprintf+0x51c>
    2698:	05eb      	lsls	r3, r5, #23
    269a:	d503      	bpl.n	26a4 <__vfprintf+0x520>
    269c:	fa5f f888 	uxtb.w	r8, r8
    26a0:	f04f 0900 	mov.w	r9, #0
    26a4:	4a30      	ldr	r2, [pc, #192]	; (2768 <__vfprintf+0x5e4>)
    26a6:	4b31      	ldr	r3, [pc, #196]	; (276c <__vfprintf+0x5e8>)
    26a8:	f015 0f08 	tst.w	r5, #8
    26ac:	bf0c      	ite	eq
    26ae:	469e      	moveq	lr, r3
    26b0:	4696      	movne	lr, r2
    26b2:	06e8      	lsls	r0, r5, #27
    26b4:	f140 80e9 	bpl.w	288a <__vfprintf+0x706>
    26b8:	f425 7500 	bic.w	r5, r5, #512	; 0x200
    26bc:	e0e5      	b.n	288a <__vfprintf+0x706>
    26be:	0669      	lsls	r1, r5, #25
    26c0:	d508      	bpl.n	26d4 <__vfprintf+0x550>
    26c2:	1dd3      	adds	r3, r2, #7
    26c4:	f023 0307 	bic.w	r3, r3, #7
    26c8:	f103 0208 	add.w	r2, r3, #8
    26cc:	921e      	str	r2, [sp, #120]	; 0x78
    26ce:	e9d3 8900 	ldrd	r8, r9, [r3]
    26d2:	e005      	b.n	26e0 <__vfprintf+0x55c>
    26d4:	1d13      	adds	r3, r2, #4
    26d6:	931e      	str	r3, [sp, #120]	; 0x78
    26d8:	6813      	ldr	r3, [r2, #0]
    26da:	f04f 0900 	mov.w	r9, #0
    26de:	4698      	mov	r8, r3
    26e0:	062a      	lsls	r2, r5, #24
    26e2:	d502      	bpl.n	26ea <__vfprintf+0x566>
    26e4:	fa1f f888 	uxth.w	r8, r8
    26e8:	e003      	b.n	26f2 <__vfprintf+0x56e>
    26ea:	05eb      	lsls	r3, r5, #23
    26ec:	d503      	bpl.n	26f6 <__vfprintf+0x572>
    26ee:	fa5f f888 	uxtb.w	r8, r8
    26f2:	f04f 0900 	mov.w	r9, #0
    26f6:	4a1e      	ldr	r2, [pc, #120]	; (2770 <__vfprintf+0x5ec>)
    26f8:	4b1c      	ldr	r3, [pc, #112]	; (276c <__vfprintf+0x5e8>)
    26fa:	f015 0f08 	tst.w	r5, #8
    26fe:	bf0c      	ite	eq
    2700:	469e      	moveq	lr, r3
    2702:	4696      	movne	lr, r2
    2704:	06e8      	lsls	r0, r5, #27
    2706:	f140 80c2 	bpl.w	288e <__vfprintf+0x70a>
    270a:	f425 7500 	bic.w	r5, r5, #512	; 0x200
    270e:	e0be      	b.n	288e <__vfprintf+0x70a>
    2710:	6813      	ldr	r3, [r2, #0]
    2712:	1d10      	adds	r0, r2, #4
    2714:	901e      	str	r0, [sp, #120]	; 0x78
    2716:	4698      	mov	r8, r3
    2718:	f04f 0900 	mov.w	r9, #0
    271c:	4915      	ldr	r1, [pc, #84]	; (2774 <__vfprintf+0x5f0>)
    271e:	f8df e050 	ldr.w	lr, [pc, #80]	; 2770 <__vfprintf+0x5ec>
    2722:	e0bb      	b.n	289c <__vfprintf+0x718>
    2724:	0669      	lsls	r1, r5, #25
    2726:	d508      	bpl.n	273a <__vfprintf+0x5b6>
    2728:	1dd3      	adds	r3, r2, #7
    272a:	f023 0307 	bic.w	r3, r3, #7
    272e:	f103 0108 	add.w	r1, r3, #8
    2732:	911e      	str	r1, [sp, #120]	; 0x78
    2734:	e9d3 8900 	ldrd	r8, r9, [r3]
    2738:	e005      	b.n	2746 <__vfprintf+0x5c2>
    273a:	1d13      	adds	r3, r2, #4
    273c:	931e      	str	r3, [sp, #120]	; 0x78
    273e:	6813      	ldr	r3, [r2, #0]
    2740:	f04f 0900 	mov.w	r9, #0
    2744:	4698      	mov	r8, r3
    2746:	062a      	lsls	r2, r5, #24
    2748:	d502      	bpl.n	2750 <__vfprintf+0x5cc>
    274a:	fa1f f888 	uxth.w	r8, r8
    274e:	e003      	b.n	2758 <__vfprintf+0x5d4>
    2750:	05eb      	lsls	r3, r5, #23
    2752:	d503      	bpl.n	275c <__vfprintf+0x5d8>
    2754:	fa5f f888 	uxtb.w	r8, r8
    2758:	f04f 0900 	mov.w	r9, #0
    275c:	f015 0f08 	tst.w	r5, #8
    2760:	4a05      	ldr	r2, [pc, #20]	; (2778 <__vfprintf+0x5f4>)
    2762:	e058      	b.n	2816 <__vfprintf+0x692>
    2764:	0000403c 	.word	0x0000403c
    2768:	00004043 	.word	0x00004043
    276c:	00004084 	.word	0x00004084
    2770:	00004046 	.word	0x00004046
    2774:	0000405c 	.word	0x0000405c
    2778:	00004049 	.word	0x00004049
    277c:	0668      	lsls	r0, r5, #25
    277e:	d508      	bpl.n	2792 <__vfprintf+0x60e>
    2780:	1dd3      	adds	r3, r2, #7
    2782:	f023 0307 	bic.w	r3, r3, #7
    2786:	f103 0008 	add.w	r0, r3, #8
    278a:	901e      	str	r0, [sp, #120]	; 0x78
    278c:	e9d3 8900 	ldrd	r8, r9, [r3]
    2790:	e005      	b.n	279e <__vfprintf+0x61a>
    2792:	6813      	ldr	r3, [r2, #0]
    2794:	1d11      	adds	r1, r2, #4
    2796:	911e      	str	r1, [sp, #120]	; 0x78
    2798:	4698      	mov	r8, r3
    279a:	f04f 0900 	mov.w	r9, #0
    279e:	0629      	lsls	r1, r5, #24
    27a0:	d502      	bpl.n	27a8 <__vfprintf+0x624>
    27a2:	fa1f f888 	uxth.w	r8, r8
    27a6:	e003      	b.n	27b0 <__vfprintf+0x62c>
    27a8:	05ea      	lsls	r2, r5, #23
    27aa:	d503      	bpl.n	27b4 <__vfprintf+0x630>
    27ac:	fa5f f888 	uxtb.w	r8, r8
    27b0:	f04f 0900 	mov.w	r9, #0
    27b4:	f015 0310 	ands.w	r3, r5, #16
    27b8:	d06b      	beq.n	2892 <__vfprintf+0x70e>
    27ba:	f425 7500 	bic.w	r5, r5, #512	; 0x200
    27be:	2100      	movs	r1, #0
    27c0:	e068      	b.n	2894 <__vfprintf+0x710>
    27c2:	066b      	lsls	r3, r5, #25
    27c4:	d508      	bpl.n	27d8 <__vfprintf+0x654>
    27c6:	1dd3      	adds	r3, r2, #7
    27c8:	f023 0307 	bic.w	r3, r3, #7
    27cc:	f103 0208 	add.w	r2, r3, #8
    27d0:	921e      	str	r2, [sp, #120]	; 0x78
    27d2:	e9d3 2300 	ldrd	r2, r3, [r3]
    27d6:	e004      	b.n	27e2 <__vfprintf+0x65e>
    27d8:	6811      	ldr	r1, [r2, #0]
    27da:	1d13      	adds	r3, r2, #4
    27dc:	931e      	str	r3, [sp, #120]	; 0x78
    27de:	460a      	mov	r2, r1
    27e0:	17cb      	asrs	r3, r1, #31
    27e2:	0628      	lsls	r0, r5, #24
    27e4:	d501      	bpl.n	27ea <__vfprintf+0x666>
    27e6:	b212      	sxth	r2, r2
    27e8:	e002      	b.n	27f0 <__vfprintf+0x66c>
    27ea:	05e9      	lsls	r1, r5, #23
    27ec:	d501      	bpl.n	27f2 <__vfprintf+0x66e>
    27ee:	b252      	sxtb	r2, r2
    27f0:	17d3      	asrs	r3, r2, #31
    27f2:	2a00      	cmp	r2, #0
    27f4:	f173 0000 	sbcs.w	r0, r3, #0
    27f8:	da06      	bge.n	2808 <__vfprintf+0x684>
    27fa:	f1d2 0800 	rsbs	r8, r2, #0
    27fe:	eb63 0943 	sbc.w	r9, r3, r3, lsl #1
    2802:	f8df e2b0 	ldr.w	lr, [pc, #688]	; 2ab4 <__vfprintf+0x930>
    2806:	e00d      	b.n	2824 <__vfprintf+0x6a0>
    2808:	07a8      	lsls	r0, r5, #30
    280a:	4690      	mov	r8, r2
    280c:	4699      	mov	r9, r3
    280e:	d407      	bmi.n	2820 <__vfprintf+0x69c>
    2810:	4aa4      	ldr	r2, [pc, #656]	; (2aa4 <__vfprintf+0x920>)
    2812:	f015 0f04 	tst.w	r5, #4
    2816:	4ba4      	ldr	r3, [pc, #656]	; (2aa8 <__vfprintf+0x924>)
    2818:	bf0c      	ite	eq
    281a:	469e      	moveq	lr, r3
    281c:	4696      	movne	lr, r2
    281e:	e001      	b.n	2824 <__vfprintf+0x6a0>
    2820:	f8df e294 	ldr.w	lr, [pc, #660]	; 2ab8 <__vfprintf+0x934>
    2824:	f015 0310 	ands.w	r3, r5, #16
    2828:	d037      	beq.n	289a <__vfprintf+0x716>
    282a:	f425 7500 	bic.w	r5, r5, #512	; 0x200
    282e:	2100      	movs	r1, #0
    2830:	e034      	b.n	289c <__vfprintf+0x718>
    2832:	06e9      	lsls	r1, r5, #27
    2834:	bf5c      	itt	pl
    2836:	f045 0510 	orrpl.w	r5, r5, #16
    283a:	270d      	movpl	r7, #13
    283c:	f445 6580 	orr.w	r5, r5, #1024	; 0x400
    2840:	f015 0f10 	tst.w	r5, #16
    2844:	bf08      	it	eq
    2846:	2706      	moveq	r7, #6
    2848:	f102 0307 	add.w	r3, r2, #7
    284c:	f015 0120 	ands.w	r1, r5, #32
    2850:	f023 0307 	bic.w	r3, r3, #7
    2854:	d00c      	beq.n	2870 <__vfprintf+0x6ec>
    2856:	f103 0108 	add.w	r1, r3, #8
    285a:	911e      	str	r1, [sp, #120]	; 0x78
    285c:	e9d3 2300 	ldrd	r2, r3, [r3]
    2860:	f04f 0800 	mov.w	r8, #0
    2864:	e9cd 232a 	strd	r2, r3, [sp, #168]	; 0xa8
    2868:	f04f 0900 	mov.w	r9, #0
    286c:	2100      	movs	r1, #0
    286e:	e00a      	b.n	2886 <__vfprintf+0x702>
    2870:	f103 0208 	add.w	r2, r3, #8
    2874:	921e      	str	r2, [sp, #120]	; 0x78
    2876:	e9d3 2300 	ldrd	r2, r3, [r3]
    287a:	e9cd 232a 	strd	r2, r3, [sp, #168]	; 0xa8
    287e:	f04f 0800 	mov.w	r8, #0
    2882:	f04f 0900 	mov.w	r9, #0
    2886:	468e      	mov	lr, r1
    2888:	e008      	b.n	289c <__vfprintf+0x718>
    288a:	4988      	ldr	r1, [pc, #544]	; (2aac <__vfprintf+0x928>)
    288c:	e006      	b.n	289c <__vfprintf+0x718>
    288e:	4988      	ldr	r1, [pc, #544]	; (2ab0 <__vfprintf+0x92c>)
    2890:	e004      	b.n	289c <__vfprintf+0x718>
    2892:	4619      	mov	r1, r3
    2894:	f8df e210 	ldr.w	lr, [pc, #528]	; 2aa8 <__vfprintf+0x924>
    2898:	e000      	b.n	289c <__vfprintf+0x718>
    289a:	4619      	mov	r1, r3
    289c:	980d      	ldr	r0, [sp, #52]	; 0x34
    289e:	e9dd 230e 	ldrd	r2, r3, [sp, #56]	; 0x38
    28a2:	1a12      	subs	r2, r2, r0
    28a4:	eb63 73e0 	sbc.w	r3, r3, r0, asr #31
    28a8:	e9cd 2308 	strd	r2, r3, [sp, #32]
    28ac:	f04f 33ff 	mov.w	r3, #4294967295
    28b0:	972c      	str	r7, [sp, #176]	; 0xb0
    28b2:	f8cd e0b4 	str.w	lr, [sp, #180]	; 0xb4
    28b6:	932e      	str	r3, [sp, #184]	; 0xb8
    28b8:	932f      	str	r3, [sp, #188]	; 0xbc
    28ba:	2200      	movs	r2, #0
    28bc:	2055      	movs	r0, #85	; 0x55
    28be:	ab22      	add	r3, sp, #136	; 0x88
    28c0:	54d0      	strb	r0, [r2, r3]
    28c2:	3201      	adds	r2, #1
    28c4:	2a20      	cmp	r2, #32
    28c6:	d1fa      	bne.n	28be <__vfprintf+0x73a>
    28c8:	f415 6f82 	tst.w	r5, #1040	; 0x410
    28cc:	d101      	bne.n	28d2 <__vfprintf+0x74e>
    28ce:	2301      	movs	r3, #1
    28d0:	932c      	str	r3, [sp, #176]	; 0xb0
    28d2:	2c67      	cmp	r4, #103	; 0x67
    28d4:	dc15      	bgt.n	2902 <__vfprintf+0x77e>
    28d6:	2c65      	cmp	r4, #101	; 0x65
    28d8:	f280 80c0 	bge.w	2a5c <__vfprintf+0x8d8>
    28dc:	2c47      	cmp	r4, #71	; 0x47
    28de:	f000 80bd 	beq.w	2a5c <__vfprintf+0x8d8>
    28e2:	dc06      	bgt.n	28f2 <__vfprintf+0x76e>
    28e4:	2c41      	cmp	r4, #65	; 0x41
    28e6:	f000 80b9 	beq.w	2a5c <__vfprintf+0x8d8>
    28ea:	2c45      	cmp	r4, #69	; 0x45
    28ec:	f040 80c6 	bne.w	2a7c <__vfprintf+0x8f8>
    28f0:	e0b4      	b.n	2a5c <__vfprintf+0x8d8>
    28f2:	2c61      	cmp	r4, #97	; 0x61
    28f4:	f000 80b2 	beq.w	2a5c <__vfprintf+0x8d8>
    28f8:	2c64      	cmp	r4, #100	; 0x64
    28fa:	f000 80a8 	beq.w	2a4e <__vfprintf+0x8ca>
    28fe:	2c58      	cmp	r4, #88	; 0x58
    2900:	e00d      	b.n	291e <__vfprintf+0x79a>
    2902:	2c70      	cmp	r4, #112	; 0x70
    2904:	d01f      	beq.n	2946 <__vfprintf+0x7c2>
    2906:	dc06      	bgt.n	2916 <__vfprintf+0x792>
    2908:	2c69      	cmp	r4, #105	; 0x69
    290a:	f000 80a0 	beq.w	2a4e <__vfprintf+0x8ca>
    290e:	2c6f      	cmp	r4, #111	; 0x6f
    2910:	f040 80b4 	bne.w	2a7c <__vfprintf+0x8f8>
    2914:	e02e      	b.n	2974 <__vfprintf+0x7f0>
    2916:	2c75      	cmp	r4, #117	; 0x75
    2918:	f000 8099 	beq.w	2a4e <__vfprintf+0x8ca>
    291c:	2c78      	cmp	r4, #120	; 0x78
    291e:	f040 80ad 	bne.w	2a7c <__vfprintf+0x8f8>
    2922:	e010      	b.n	2946 <__vfprintf+0x7c2>
    2924:	f008 030f 	and.w	r3, r8, #15
    2928:	5ccb      	ldrb	r3, [r1, r3]
    292a:	aa22      	add	r2, sp, #136	; 0x88
    292c:	f80b 3002 	strb.w	r3, [fp, r2]
    2930:	ea4f 1218 	mov.w	r2, r8, lsr #4
    2934:	ea42 7209 	orr.w	r2, r2, r9, lsl #28
    2938:	ea4f 1319 	mov.w	r3, r9, lsr #4
    293c:	f10b 0b01 	add.w	fp, fp, #1
    2940:	4690      	mov	r8, r2
    2942:	4699      	mov	r9, r3
    2944:	e001      	b.n	294a <__vfprintf+0x7c6>
    2946:	f04f 0b00 	mov.w	fp, #0
    294a:	ea58 0209 	orrs.w	r2, r8, r9
    294e:	d1e9      	bne.n	2924 <__vfprintf+0x7a0>
    2950:	e096      	b.n	2a80 <__vfprintf+0x8fc>
    2952:	f008 0307 	and.w	r3, r8, #7
    2956:	3330      	adds	r3, #48	; 0x30
    2958:	aa22      	add	r2, sp, #136	; 0x88
    295a:	f80b 3002 	strb.w	r3, [fp, r2]
    295e:	ea4f 02d8 	mov.w	r2, r8, lsr #3
    2962:	ea42 7249 	orr.w	r2, r2, r9, lsl #29
    2966:	ea4f 03d9 	mov.w	r3, r9, lsr #3
    296a:	f10b 0b01 	add.w	fp, fp, #1
    296e:	4690      	mov	r8, r2
    2970:	4699      	mov	r9, r3
    2972:	e001      	b.n	2978 <__vfprintf+0x7f4>
    2974:	f04f 0b00 	mov.w	fp, #0
    2978:	ea58 0309 	orrs.w	r3, r8, r9
    297c:	d1e9      	bne.n	2952 <__vfprintf+0x7ce>
    297e:	e07f      	b.n	2a80 <__vfprintf+0x8fc>
    2980:	ea4f 0798 	mov.w	r7, r8, lsr #2
    2984:	ea47 7089 	orr.w	r0, r7, r9, lsl #30
    2988:	ea4f 0199 	mov.w	r1, r9, lsr #2
    298c:	ea5f 0359 	movs.w	r3, r9, lsr #1
    2990:	ea4f 0238 	mov.w	r2, r8, rrx
    2994:	901a      	str	r0, [sp, #104]	; 0x68
    2996:	911b      	str	r1, [sp, #108]	; 0x6c
    2998:	e9dd 011a 	ldrd	r0, r1, [sp, #104]	; 0x68
    299c:	1812      	adds	r2, r2, r0
    299e:	eb43 0301 	adc.w	r3, r3, r1
    29a2:	0911      	lsrs	r1, r2, #4
    29a4:	ea41 7703 	orr.w	r7, r1, r3, lsl #28
    29a8:	0918      	lsrs	r0, r3, #4
    29aa:	9712      	str	r7, [sp, #72]	; 0x48
    29ac:	9013      	str	r0, [sp, #76]	; 0x4c
    29ae:	e9dd 0112 	ldrd	r0, r1, [sp, #72]	; 0x48
    29b2:	1812      	adds	r2, r2, r0
    29b4:	eb43 0301 	adc.w	r3, r3, r1
    29b8:	0a11      	lsrs	r1, r2, #8
    29ba:	ea41 6703 	orr.w	r7, r1, r3, lsl #24
    29be:	0a18      	lsrs	r0, r3, #8
    29c0:	9714      	str	r7, [sp, #80]	; 0x50
    29c2:	9015      	str	r0, [sp, #84]	; 0x54
    29c4:	e9dd 0114 	ldrd	r0, r1, [sp, #80]	; 0x50
    29c8:	1812      	adds	r2, r2, r0
    29ca:	eb43 0301 	adc.w	r3, r3, r1
    29ce:	0c11      	lsrs	r1, r2, #16
    29d0:	ea41 4703 	orr.w	r7, r1, r3, lsl #16
    29d4:	0c18      	lsrs	r0, r3, #16
    29d6:	9716      	str	r7, [sp, #88]	; 0x58
    29d8:	9017      	str	r0, [sp, #92]	; 0x5c
    29da:	e9dd 0116 	ldrd	r0, r1, [sp, #88]	; 0x58
    29de:	1812      	adds	r2, r2, r0
    29e0:	eb43 0301 	adc.w	r3, r3, r1
    29e4:	2700      	movs	r7, #0
    29e6:	931c      	str	r3, [sp, #112]	; 0x70
    29e8:	971d      	str	r7, [sp, #116]	; 0x74
    29ea:	e9dd 011c 	ldrd	r0, r1, [sp, #112]	; 0x70
    29ee:	1812      	adds	r2, r2, r0
    29f0:	eb43 0301 	adc.w	r3, r3, r1
    29f4:	08d1      	lsrs	r1, r2, #3
    29f6:	ea41 7743 	orr.w	r7, r1, r3, lsl #29
    29fa:	08d8      	lsrs	r0, r3, #3
    29fc:	9011      	str	r0, [sp, #68]	; 0x44
    29fe:	fba7 0104 	umull	r0, r1, r7, r4
    2a02:	9710      	str	r7, [sp, #64]	; 0x40
    2a04:	9f11      	ldr	r7, [sp, #68]	; 0x44
    2a06:	2206      	movs	r2, #6
    2a08:	fb04 1107 	mla	r1, r4, r7, r1
    2a0c:	2300      	movs	r3, #0
    2a0e:	eb12 0208 	adds.w	r2, r2, r8
    2a12:	eb43 0309 	adc.w	r3, r3, r9
    2a16:	1a12      	subs	r2, r2, r0
    2a18:	eb63 0301 	sbc.w	r3, r3, r1
    2a1c:	0910      	lsrs	r0, r2, #4
    2a1e:	ea40 7103 	orr.w	r1, r0, r3, lsl #28
    2a22:	091f      	lsrs	r7, r3, #4
    2a24:	9118      	str	r1, [sp, #96]	; 0x60
    2a26:	9719      	str	r7, [sp, #100]	; 0x64
    2a28:	e9dd 2310 	ldrd	r2, r3, [sp, #64]	; 0x40
    2a2c:	e9dd 0118 	ldrd	r0, r1, [sp, #96]	; 0x60
    2a30:	1880      	adds	r0, r0, r2
    2a32:	eb41 0103 	adc.w	r1, r1, r3
    2a36:	f108 0330 	add.w	r3, r8, #48	; 0x30
    2a3a:	fb04 3310 	mls	r3, r4, r0, r3
    2a3e:	aa22      	add	r2, sp, #136	; 0x88
    2a40:	f80b 3002 	strb.w	r3, [fp, r2]
    2a44:	4680      	mov	r8, r0
    2a46:	f10b 0b01 	add.w	fp, fp, #1
    2a4a:	4689      	mov	r9, r1
    2a4c:	e002      	b.n	2a54 <__vfprintf+0x8d0>
    2a4e:	f04f 0b00 	mov.w	fp, #0
    2a52:	240a      	movs	r4, #10
    2a54:	ea58 0309 	orrs.w	r3, r8, r9
    2a58:	d192      	bne.n	2980 <__vfprintf+0x7fc>
    2a5a:	e011      	b.n	2a80 <__vfprintf+0x8fc>
    2a5c:	ab2d      	add	r3, sp, #180	; 0xb4
    2a5e:	9300      	str	r3, [sp, #0]
    2a60:	ab2c      	add	r3, sp, #176	; 0xb0
    2a62:	9301      	str	r3, [sp, #4]
    2a64:	ab2e      	add	r3, sp, #184	; 0xb8
    2a66:	9302      	str	r3, [sp, #8]
    2a68:	ab2f      	add	r3, sp, #188	; 0xbc
    2a6a:	9303      	str	r3, [sp, #12]
    2a6c:	4620      	mov	r0, r4
    2a6e:	a92a      	add	r1, sp, #168	; 0xa8
    2a70:	aa22      	add	r2, sp, #136	; 0x88
    2a72:	462b      	mov	r3, r5
    2a74:	9c3c      	ldr	r4, [sp, #240]	; 0xf0
    2a76:	47a0      	blx	r4
    2a78:	4683      	mov	fp, r0
    2a7a:	e001      	b.n	2a80 <__vfprintf+0x8fc>
    2a7c:	f04f 0b00 	mov.w	fp, #0
    2a80:	f415 6780 	ands.w	r7, r5, #1024	; 0x400
    2a84:	9720      	str	r7, [sp, #128]	; 0x80
    2a86:	d019      	beq.n	2abc <__vfprintf+0x938>
    2a88:	2300      	movs	r3, #0
    2a8a:	932c      	str	r3, [sp, #176]	; 0xb0
    2a8c:	9b2e      	ldr	r3, [sp, #184]	; 0xb8
    2a8e:	2b00      	cmp	r3, #0
    2a90:	dd01      	ble.n	2a96 <__vfprintf+0x912>
    2a92:	3b01      	subs	r3, #1
    2a94:	932c      	str	r3, [sp, #176]	; 0xb0
    2a96:	9b2f      	ldr	r3, [sp, #188]	; 0xbc
    2a98:	2b00      	cmp	r3, #0
    2a9a:	dd15      	ble.n	2ac8 <__vfprintf+0x944>
    2a9c:	9a2c      	ldr	r2, [sp, #176]	; 0xb0
    2a9e:	3b01      	subs	r3, #1
    2aa0:	18d3      	adds	r3, r2, r3
    2aa2:	e010      	b.n	2ac6 <__vfprintf+0x942>
    2aa4:	00004006 	.word	0x00004006
    2aa8:	00004084 	.word	0x00004084
    2aac:	0000404b 	.word	0x0000404b
    2ab0:	0000405c 	.word	0x0000405c
    2ab4:	00004036 	.word	0x00004036
    2ab8:	00004004 	.word	0x00004004
    2abc:	9b2c      	ldr	r3, [sp, #176]	; 0xb0
    2abe:	ebb3 030b 	subs.w	r3, r3, fp
    2ac2:	bf48      	it	mi
    2ac4:	2300      	movmi	r3, #0
    2ac6:	932c      	str	r3, [sp, #176]	; 0xb0
    2ac8:	982d      	ldr	r0, [sp, #180]	; 0xb4
    2aca:	9c2c      	ldr	r4, [sp, #176]	; 0xb0
    2acc:	f000 fa4a 	bl	2f64 <strlen>
    2ad0:	9f06      	ldr	r7, [sp, #24]
    2ad2:	445c      	add	r4, fp
    2ad4:	1b3b      	subs	r3, r7, r4
    2ad6:	f415 7200 	ands.w	r2, r5, #512	; 0x200
    2ada:	ebc0 0903 	rsb	r9, r0, r3
    2ade:	921f      	str	r2, [sp, #124]	; 0x7c
    2ae0:	d009      	beq.n	2af6 <__vfprintf+0x972>
    2ae2:	2700      	movs	r7, #0
    2ae4:	2200      	movs	r2, #0
    2ae6:	2300      	movs	r3, #0
    2ae8:	17fc      	asrs	r4, r7, #31
    2aea:	e9cd 2306 	strd	r2, r3, [sp, #24]
    2aee:	970a      	str	r7, [sp, #40]	; 0x28
    2af0:	940b      	str	r4, [sp, #44]	; 0x2c
    2af2:	46ac      	mov	ip, r5
    2af4:	e059      	b.n	2baa <__vfprintf+0xa26>
    2af6:	07eb      	lsls	r3, r5, #31
    2af8:	d521      	bpl.n	2b3e <__vfprintf+0x9ba>
    2afa:	9f1f      	ldr	r7, [sp, #124]	; 0x7c
    2afc:	e7f2      	b.n	2ae4 <__vfprintf+0x960>
    2afe:	e9dd 2306 	ldrd	r2, r3, [sp, #24]
    2b02:	e9dd 0108 	ldrd	r0, r1, [sp, #32]
    2b06:	4282      	cmp	r2, r0
    2b08:	eb73 0101 	sbcs.w	r1, r3, r1
    2b0c:	da0d      	bge.n	2b2a <__vfprintf+0x9a6>
    2b0e:	68b3      	ldr	r3, [r6, #8]
    2b10:	3b01      	subs	r3, #1
    2b12:	2b00      	cmp	r3, #0
    2b14:	60b3      	str	r3, [r6, #8]
    2b16:	db04      	blt.n	2b22 <__vfprintf+0x99e>
    2b18:	6833      	ldr	r3, [r6, #0]
    2b1a:	f803 7b01 	strb.w	r7, [r3], #1
    2b1e:	6033      	str	r3, [r6, #0]
    2b20:	e003      	b.n	2b2a <__vfprintf+0x9a6>
    2b22:	2020      	movs	r0, #32
    2b24:	4631      	mov	r1, r6
    2b26:	f000 fa8f 	bl	3048 <__flsbuf>
    2b2a:	2001      	movs	r0, #1
    2b2c:	e9dd 2306 	ldrd	r2, r3, [sp, #24]
    2b30:	2100      	movs	r1, #0
    2b32:	1812      	adds	r2, r2, r0
    2b34:	eb43 0301 	adc.w	r3, r3, r1
    2b38:	e9cd 2306 	strd	r2, r3, [sp, #24]
    2b3c:	e005      	b.n	2b4a <__vfprintf+0x9c6>
    2b3e:	2200      	movs	r2, #0
    2b40:	2300      	movs	r3, #0
    2b42:	e9cd 2306 	strd	r2, r3, [sp, #24]
    2b46:	464c      	mov	r4, r9
    2b48:	2720      	movs	r7, #32
    2b4a:	3c01      	subs	r4, #1
    2b4c:	d5d7      	bpl.n	2afe <__vfprintf+0x97a>
    2b4e:	ea29 77e9 	bic.w	r7, r9, r9, asr #31
    2b52:	f109 33ff 	add.w	r3, r9, #4294967295
    2b56:	ebc7 0903 	rsb	r9, r7, r3
    2b5a:	e7c3      	b.n	2ae4 <__vfprintf+0x960>
    2b5c:	e9dd 450a 	ldrd	r4, r5, [sp, #40]	; 0x28
    2b60:	e9dd 2306 	ldrd	r2, r3, [sp, #24]
    2b64:	1912      	adds	r2, r2, r4
    2b66:	eb43 0305 	adc.w	r3, r3, r5
    2b6a:	e9dd 4508 	ldrd	r4, r5, [sp, #32]
    2b6e:	42a2      	cmp	r2, r4
    2b70:	eb73 0505 	sbcs.w	r5, r3, r5
    2b74:	da10      	bge.n	2b98 <__vfprintf+0xa14>
    2b76:	68b3      	ldr	r3, [r6, #8]
    2b78:	3b01      	subs	r3, #1
    2b7a:	2b00      	cmp	r3, #0
    2b7c:	60b3      	str	r3, [r6, #8]
    2b7e:	db04      	blt.n	2b8a <__vfprintf+0xa06>
    2b80:	6833      	ldr	r3, [r6, #0]
    2b82:	f803 0b01 	strb.w	r0, [r3], #1
    2b86:	6033      	str	r3, [r6, #0]
    2b88:	e006      	b.n	2b98 <__vfprintf+0xa14>
    2b8a:	4631      	mov	r1, r6
    2b8c:	f8cd c014 	str.w	ip, [sp, #20]
    2b90:	f000 fa5a 	bl	3048 <__flsbuf>
    2b94:	f8dd c014 	ldr.w	ip, [sp, #20]
    2b98:	2401      	movs	r4, #1
    2b9a:	e9dd 2306 	ldrd	r2, r3, [sp, #24]
    2b9e:	2500      	movs	r5, #0
    2ba0:	1912      	adds	r2, r2, r4
    2ba2:	eb43 0305 	adc.w	r3, r3, r5
    2ba6:	e9cd 2306 	strd	r2, r3, [sp, #24]
    2baa:	9b2d      	ldr	r3, [sp, #180]	; 0xb4
    2bac:	9d06      	ldr	r5, [sp, #24]
    2bae:	f813 0b01 	ldrb.w	r0, [r3], #1
    2bb2:	eb07 0805 	add.w	r8, r7, r5
    2bb6:	4644      	mov	r4, r8
    2bb8:	932d      	str	r3, [sp, #180]	; 0xb4
    2bba:	2800      	cmp	r0, #0
    2bbc:	d1ce      	bne.n	2b5c <__vfprintf+0x9d8>
    2bbe:	f01c 0501 	ands.w	r5, ip, #1
    2bc2:	9521      	str	r5, [sp, #132]	; 0x84
    2bc4:	d13e      	bne.n	2c44 <__vfprintf+0xac0>
    2bc6:	9f1f      	ldr	r7, [sp, #124]	; 0x7c
    2bc8:	2300      	movs	r3, #0
    2bca:	2200      	movs	r2, #0
    2bcc:	e9cd 2306 	strd	r2, r3, [sp, #24]
    2bd0:	4643      	mov	r3, r8
    2bd2:	2f00      	cmp	r7, #0
    2bd4:	bf0c      	ite	eq
    2bd6:	2420      	moveq	r4, #32
    2bd8:	2430      	movne	r4, #48	; 0x30
    2bda:	17df      	asrs	r7, r3, #31
    2bdc:	f109 35ff 	add.w	r5, r9, #4294967295
    2be0:	f8cd 8028 	str.w	r8, [sp, #40]	; 0x28
    2be4:	970b      	str	r7, [sp, #44]	; 0x2c
    2be6:	e023      	b.n	2c30 <__vfprintf+0xaac>
    2be8:	e9dd 010a 	ldrd	r0, r1, [sp, #40]	; 0x28
    2bec:	e9dd 2306 	ldrd	r2, r3, [sp, #24]
    2bf0:	1812      	adds	r2, r2, r0
    2bf2:	eb43 0301 	adc.w	r3, r3, r1
    2bf6:	e9dd 0108 	ldrd	r0, r1, [sp, #32]
    2bfa:	4282      	cmp	r2, r0
    2bfc:	eb73 0101 	sbcs.w	r1, r3, r1
    2c00:	da0d      	bge.n	2c1e <__vfprintf+0xa9a>
    2c02:	68b3      	ldr	r3, [r6, #8]
    2c04:	3b01      	subs	r3, #1
    2c06:	2b00      	cmp	r3, #0
    2c08:	60b3      	str	r3, [r6, #8]
    2c0a:	db04      	blt.n	2c16 <__vfprintf+0xa92>
    2c0c:	6833      	ldr	r3, [r6, #0]
    2c0e:	f803 4b01 	strb.w	r4, [r3], #1
    2c12:	6033      	str	r3, [r6, #0]
    2c14:	e003      	b.n	2c1e <__vfprintf+0xa9a>
    2c16:	4620      	mov	r0, r4
    2c18:	4631      	mov	r1, r6
    2c1a:	f000 fa15 	bl	3048 <__flsbuf>
    2c1e:	2001      	movs	r0, #1
    2c20:	e9dd 2306 	ldrd	r2, r3, [sp, #24]
    2c24:	2100      	movs	r1, #0
    2c26:	1812      	adds	r2, r2, r0
    2c28:	eb43 0301 	adc.w	r3, r3, r1
    2c2c:	e9cd 2306 	strd	r2, r3, [sp, #24]
    2c30:	9906      	ldr	r1, [sp, #24]
    2c32:	1a6b      	subs	r3, r5, r1
    2c34:	2b00      	cmp	r3, #0
    2c36:	dad7      	bge.n	2be8 <__vfprintf+0xa64>
    2c38:	ea29 73e9 	bic.w	r3, r9, r9, asr #31
    2c3c:	eb08 0403 	add.w	r4, r8, r3
    2c40:	ebc3 0905 	rsb	r9, r3, r5
    2c44:	9a20      	ldr	r2, [sp, #128]	; 0x80
    2c46:	2a00      	cmp	r2, #0
    2c48:	f040 8099 	bne.w	2d7e <__vfprintf+0xbfa>
    2c4c:	2200      	movs	r2, #0
    2c4e:	2300      	movs	r3, #0
    2c50:	17e5      	asrs	r5, r4, #31
    2c52:	e9cd 2306 	strd	r2, r3, [sp, #24]
    2c56:	940a      	str	r4, [sp, #40]	; 0x28
    2c58:	950b      	str	r5, [sp, #44]	; 0x2c
    2c5a:	2730      	movs	r7, #48	; 0x30
    2c5c:	e0b8      	b.n	2dd0 <__vfprintf+0xc4c>
    2c5e:	ab22      	add	r3, sp, #136	; 0x88
    2c60:	5cf8      	ldrb	r0, [r7, r3]
    2c62:	283c      	cmp	r0, #60	; 0x3c
    2c64:	d027      	beq.n	2cb6 <__vfprintf+0xb32>
    2c66:	283e      	cmp	r0, #62	; 0x3e
    2c68:	d16f      	bne.n	2d4a <__vfprintf+0xbc6>
    2c6a:	e05b      	b.n	2d24 <__vfprintf+0xba0>
    2c6c:	e9dd 010a 	ldrd	r0, r1, [sp, #40]	; 0x28
    2c70:	e9dd 2306 	ldrd	r2, r3, [sp, #24]
    2c74:	1812      	adds	r2, r2, r0
    2c76:	eb43 0301 	adc.w	r3, r3, r1
    2c7a:	e9dd 0108 	ldrd	r0, r1, [sp, #32]
    2c7e:	4282      	cmp	r2, r0
    2c80:	eb73 0101 	sbcs.w	r1, r3, r1
    2c84:	da0d      	bge.n	2ca2 <__vfprintf+0xb1e>
    2c86:	68b3      	ldr	r3, [r6, #8]
    2c88:	3b01      	subs	r3, #1
    2c8a:	2b00      	cmp	r3, #0
    2c8c:	60b3      	str	r3, [r6, #8]
    2c8e:	db04      	blt.n	2c9a <__vfprintf+0xb16>
    2c90:	6833      	ldr	r3, [r6, #0]
    2c92:	f803 8b01 	strb.w	r8, [r3], #1
    2c96:	6033      	str	r3, [r6, #0]
    2c98:	e003      	b.n	2ca2 <__vfprintf+0xb1e>
    2c9a:	2030      	movs	r0, #48	; 0x30
    2c9c:	4631      	mov	r1, r6
    2c9e:	f000 f9d3 	bl	3048 <__flsbuf>
    2ca2:	2001      	movs	r0, #1
    2ca4:	e9dd 2306 	ldrd	r2, r3, [sp, #24]
    2ca8:	2100      	movs	r1, #0
    2caa:	1812      	adds	r2, r2, r0
    2cac:	eb43 0301 	adc.w	r3, r3, r1
    2cb0:	e9cd 2306 	strd	r2, r3, [sp, #24]
    2cb4:	e008      	b.n	2cc8 <__vfprintf+0xb44>
    2cb6:	2200      	movs	r2, #0
    2cb8:	2300      	movs	r3, #0
    2cba:	e9cd 2306 	strd	r2, r3, [sp, #24]
    2cbe:	17e5      	asrs	r5, r4, #31
    2cc0:	940a      	str	r4, [sp, #40]	; 0x28
    2cc2:	950b      	str	r5, [sp, #44]	; 0x2c
    2cc4:	f04f 0830 	mov.w	r8, #48	; 0x30
    2cc8:	9b2e      	ldr	r3, [sp, #184]	; 0xb8
    2cca:	9806      	ldr	r0, [sp, #24]
    2ccc:	3b01      	subs	r3, #1
    2cce:	2b00      	cmp	r3, #0
    2cd0:	eb04 0500 	add.w	r5, r4, r0
    2cd4:	932e      	str	r3, [sp, #184]	; 0xb8
    2cd6:	dac9      	bge.n	2c6c <__vfprintf+0xae8>
    2cd8:	e035      	b.n	2d46 <__vfprintf+0xbc2>
    2cda:	e9dd 010a 	ldrd	r0, r1, [sp, #40]	; 0x28
    2cde:	e9dd 2306 	ldrd	r2, r3, [sp, #24]
    2ce2:	1812      	adds	r2, r2, r0
    2ce4:	eb43 0301 	adc.w	r3, r3, r1
    2ce8:	e9dd 0108 	ldrd	r0, r1, [sp, #32]
    2cec:	4282      	cmp	r2, r0
    2cee:	eb73 0101 	sbcs.w	r1, r3, r1
    2cf2:	da0d      	bge.n	2d10 <__vfprintf+0xb8c>
    2cf4:	68b3      	ldr	r3, [r6, #8]
    2cf6:	3b01      	subs	r3, #1
    2cf8:	2b00      	cmp	r3, #0
    2cfa:	60b3      	str	r3, [r6, #8]
    2cfc:	db04      	blt.n	2d08 <__vfprintf+0xb84>
    2cfe:	6833      	ldr	r3, [r6, #0]
    2d00:	f803 8b01 	strb.w	r8, [r3], #1
    2d04:	6033      	str	r3, [r6, #0]
    2d06:	e003      	b.n	2d10 <__vfprintf+0xb8c>
    2d08:	2030      	movs	r0, #48	; 0x30
    2d0a:	4631      	mov	r1, r6
    2d0c:	f000 f99c 	bl	3048 <__flsbuf>
    2d10:	2001      	movs	r0, #1
    2d12:	e9dd 2306 	ldrd	r2, r3, [sp, #24]
    2d16:	2100      	movs	r1, #0
    2d18:	1812      	adds	r2, r2, r0
    2d1a:	eb43 0301 	adc.w	r3, r3, r1
    2d1e:	e9cd 2306 	strd	r2, r3, [sp, #24]
    2d22:	e008      	b.n	2d36 <__vfprintf+0xbb2>
    2d24:	2200      	movs	r2, #0
    2d26:	2300      	movs	r3, #0
    2d28:	e9cd 2306 	strd	r2, r3, [sp, #24]
    2d2c:	17e5      	asrs	r5, r4, #31
    2d2e:	940a      	str	r4, [sp, #40]	; 0x28
    2d30:	950b      	str	r5, [sp, #44]	; 0x2c
    2d32:	f04f 0830 	mov.w	r8, #48	; 0x30
    2d36:	9b2f      	ldr	r3, [sp, #188]	; 0xbc
    2d38:	9806      	ldr	r0, [sp, #24]
    2d3a:	3b01      	subs	r3, #1
    2d3c:	2b00      	cmp	r3, #0
    2d3e:	eb04 0500 	add.w	r5, r4, r0
    2d42:	932f      	str	r3, [sp, #188]	; 0xbc
    2d44:	dac9      	bge.n	2cda <__vfprintf+0xb56>
    2d46:	46a8      	mov	r8, r5
    2d48:	e016      	b.n	2d78 <__vfprintf+0xbf4>
    2d4a:	4622      	mov	r2, r4
    2d4c:	17e3      	asrs	r3, r4, #31
    2d4e:	f104 0801 	add.w	r8, r4, #1
    2d52:	e9dd 4508 	ldrd	r4, r5, [sp, #32]
    2d56:	42a2      	cmp	r2, r4
    2d58:	eb73 0505 	sbcs.w	r5, r3, r5
    2d5c:	da0c      	bge.n	2d78 <__vfprintf+0xbf4>
    2d5e:	68b3      	ldr	r3, [r6, #8]
    2d60:	3b01      	subs	r3, #1
    2d62:	2b00      	cmp	r3, #0
    2d64:	60b3      	str	r3, [r6, #8]
    2d66:	db04      	blt.n	2d72 <__vfprintf+0xbee>
    2d68:	6833      	ldr	r3, [r6, #0]
    2d6a:	f803 0b01 	strb.w	r0, [r3], #1
    2d6e:	6033      	str	r3, [r6, #0]
    2d70:	e002      	b.n	2d78 <__vfprintf+0xbf4>
    2d72:	4631      	mov	r1, r6
    2d74:	f000 f968 	bl	3048 <__flsbuf>
    2d78:	3701      	adds	r7, #1
    2d7a:	4644      	mov	r4, r8
    2d7c:	e000      	b.n	2d80 <__vfprintf+0xbfc>
    2d7e:	2700      	movs	r7, #0
    2d80:	455f      	cmp	r7, fp
    2d82:	f6ff af6c 	blt.w	2c5e <__vfprintf+0xada>
    2d86:	e063      	b.n	2e50 <__vfprintf+0xccc>
    2d88:	e9dd 010a 	ldrd	r0, r1, [sp, #40]	; 0x28
    2d8c:	e9dd 2306 	ldrd	r2, r3, [sp, #24]
    2d90:	1812      	adds	r2, r2, r0
    2d92:	eb43 0301 	adc.w	r3, r3, r1
    2d96:	e9dd 0108 	ldrd	r0, r1, [sp, #32]
    2d9a:	4282      	cmp	r2, r0
    2d9c:	eb73 0101 	sbcs.w	r1, r3, r1
    2da0:	da0d      	bge.n	2dbe <__vfprintf+0xc3a>
    2da2:	68b3      	ldr	r3, [r6, #8]
    2da4:	3b01      	subs	r3, #1
    2da6:	2b00      	cmp	r3, #0
    2da8:	60b3      	str	r3, [r6, #8]
    2daa:	db04      	blt.n	2db6 <__vfprintf+0xc32>
    2dac:	6833      	ldr	r3, [r6, #0]
    2dae:	f803 7b01 	strb.w	r7, [r3], #1
    2db2:	6033      	str	r3, [r6, #0]
    2db4:	e003      	b.n	2dbe <__vfprintf+0xc3a>
    2db6:	2030      	movs	r0, #48	; 0x30
    2db8:	4631      	mov	r1, r6
    2dba:	f000 f945 	bl	3048 <__flsbuf>
    2dbe:	2001      	movs	r0, #1
    2dc0:	e9dd 2306 	ldrd	r2, r3, [sp, #24]
    2dc4:	2100      	movs	r1, #0
    2dc6:	1812      	adds	r2, r2, r0
    2dc8:	eb43 0301 	adc.w	r3, r3, r1
    2dcc:	e9cd 2306 	strd	r2, r3, [sp, #24]
    2dd0:	9b2c      	ldr	r3, [sp, #176]	; 0xb0
    2dd2:	9906      	ldr	r1, [sp, #24]
    2dd4:	3b01      	subs	r3, #1
    2dd6:	2b00      	cmp	r3, #0
    2dd8:	eb04 0501 	add.w	r5, r4, r1
    2ddc:	932c      	str	r3, [sp, #176]	; 0xb0
    2dde:	dad3      	bge.n	2d88 <__vfprintf+0xc04>
    2de0:	2200      	movs	r2, #0
    2de2:	2300      	movs	r3, #0
    2de4:	17ef      	asrs	r7, r5, #31
    2de6:	465c      	mov	r4, fp
    2de8:	e9cd 230a 	strd	r2, r3, [sp, #40]	; 0x28
    2dec:	9506      	str	r5, [sp, #24]
    2dee:	9707      	str	r7, [sp, #28]
    2df0:	e026      	b.n	2e40 <__vfprintf+0xcbc>
    2df2:	e9dd 0106 	ldrd	r0, r1, [sp, #24]
    2df6:	e9dd 230a 	ldrd	r2, r3, [sp, #40]	; 0x28
    2dfa:	3c01      	subs	r4, #1
    2dfc:	1812      	adds	r2, r2, r0
    2dfe:	eb43 0301 	adc.w	r3, r3, r1
    2e02:	e9dd 0108 	ldrd	r0, r1, [sp, #32]
    2e06:	4282      	cmp	r2, r0
    2e08:	eb73 0101 	sbcs.w	r1, r3, r1
    2e0c:	da0f      	bge.n	2e2e <__vfprintf+0xcaa>
    2e0e:	68b3      	ldr	r3, [r6, #8]
    2e10:	3b01      	subs	r3, #1
    2e12:	2b00      	cmp	r3, #0
    2e14:	60b3      	str	r3, [r6, #8]
    2e16:	ab22      	add	r3, sp, #136	; 0x88
    2e18:	db05      	blt.n	2e26 <__vfprintf+0xca2>
    2e1a:	5d1a      	ldrb	r2, [r3, r4]
    2e1c:	6833      	ldr	r3, [r6, #0]
    2e1e:	f803 2b01 	strb.w	r2, [r3], #1
    2e22:	6033      	str	r3, [r6, #0]
    2e24:	e003      	b.n	2e2e <__vfprintf+0xcaa>
    2e26:	5d18      	ldrb	r0, [r3, r4]
    2e28:	4631      	mov	r1, r6
    2e2a:	f000 f90d 	bl	3048 <__flsbuf>
    2e2e:	2001      	movs	r0, #1
    2e30:	e9dd 230a 	ldrd	r2, r3, [sp, #40]	; 0x28
    2e34:	2100      	movs	r1, #0
    2e36:	1812      	adds	r2, r2, r0
    2e38:	eb43 0301 	adc.w	r3, r3, r1
    2e3c:	e9cd 230a 	strd	r2, r3, [sp, #40]	; 0x28
    2e40:	2c00      	cmp	r4, #0
    2e42:	dcd6      	bgt.n	2df2 <__vfprintf+0xc6e>
    2e44:	f1bb 0f00 	cmp.w	fp, #0
    2e48:	bfac      	ite	ge
    2e4a:	eb05 040b 	addge.w	r4, r5, fp
    2e4e:	1c2c      	addlt	r4, r5, #0
    2e50:	9a21      	ldr	r2, [sp, #132]	; 0x84
    2e52:	bb2a      	cbnz	r2, 2ea0 <__vfprintf+0xd1c>
    2e54:	e033      	b.n	2ebe <__vfprintf+0xd3a>
    2e56:	e9dd 0106 	ldrd	r0, r1, [sp, #24]
    2e5a:	e9dd 230a 	ldrd	r2, r3, [sp, #40]	; 0x28
    2e5e:	1812      	adds	r2, r2, r0
    2e60:	eb43 0301 	adc.w	r3, r3, r1
    2e64:	e9dd 0108 	ldrd	r0, r1, [sp, #32]
    2e68:	4282      	cmp	r2, r0
    2e6a:	eb73 0101 	sbcs.w	r1, r3, r1
    2e6e:	da0d      	bge.n	2e8c <__vfprintf+0xd08>
    2e70:	68b3      	ldr	r3, [r6, #8]
    2e72:	3b01      	subs	r3, #1
    2e74:	2b00      	cmp	r3, #0
    2e76:	60b3      	str	r3, [r6, #8]
    2e78:	db04      	blt.n	2e84 <__vfprintf+0xd00>
    2e7a:	6833      	ldr	r3, [r6, #0]
    2e7c:	f803 7b01 	strb.w	r7, [r3], #1
    2e80:	6033      	str	r3, [r6, #0]
    2e82:	e003      	b.n	2e8c <__vfprintf+0xd08>
    2e84:	2020      	movs	r0, #32
    2e86:	4631      	mov	r1, r6
    2e88:	f000 f8de 	bl	3048 <__flsbuf>
    2e8c:	2001      	movs	r0, #1
    2e8e:	e9dd 230a 	ldrd	r2, r3, [sp, #40]	; 0x28
    2e92:	2100      	movs	r1, #0
    2e94:	1812      	adds	r2, r2, r0
    2e96:	eb43 0301 	adc.w	r3, r3, r1
    2e9a:	e9cd 230a 	strd	r2, r3, [sp, #40]	; 0x28
    2e9e:	e008      	b.n	2eb2 <__vfprintf+0xd2e>
    2ea0:	2200      	movs	r2, #0
    2ea2:	2300      	movs	r3, #0
    2ea4:	e9cd 230a 	strd	r2, r3, [sp, #40]	; 0x28
    2ea8:	17e7      	asrs	r7, r4, #31
    2eaa:	9707      	str	r7, [sp, #28]
    2eac:	464d      	mov	r5, r9
    2eae:	9406      	str	r4, [sp, #24]
    2eb0:	2720      	movs	r7, #32
    2eb2:	3d01      	subs	r5, #1
    2eb4:	d5cf      	bpl.n	2e56 <__vfprintf+0xcd2>
    2eb6:	f1b9 0f00 	cmp.w	r9, #0
    2eba:	bfa8      	it	ge
    2ebc:	444c      	addge	r4, r9
    2ebe:	9d0d      	ldr	r5, [sp, #52]	; 0x34
    2ec0:	192d      	adds	r5, r5, r4
    2ec2:	950d      	str	r5, [sp, #52]	; 0x34
    2ec4:	f89a 0000 	ldrb.w	r0, [sl]
    2ec8:	2800      	cmp	r0, #0
    2eca:	f47f a968 	bne.w	219e <__vfprintf+0x1a>
    2ece:	980d      	ldr	r0, [sp, #52]	; 0x34
    2ed0:	b031      	add	sp, #196	; 0xc4
    2ed2:	e8bd 8ff0 	ldmia.w	sp!, {r4, r5, r6, r7, r8, r9, sl, fp, pc}
    2ed6:	bf00      	nop

00002ed8 <setvbuf>:
    2ed8:	b570      	push	{r4, r5, r6, lr}
    2eda:	68c4      	ldr	r4, [r0, #12]
    2edc:	f014 0f03 	tst.w	r4, #3
    2ee0:	d017      	beq.n	2f12 <setvbuf+0x3a>
    2ee2:	f5b2 7f00 	cmp.w	r2, #512	; 0x200
    2ee6:	d009      	beq.n	2efc <setvbuf+0x24>
    2ee8:	f5b2 6f80 	cmp.w	r2, #1024	; 0x400
    2eec:	d003      	beq.n	2ef6 <setvbuf+0x1e>
    2eee:	f5b2 7f80 	cmp.w	r2, #256	; 0x100
    2ef2:	d10e      	bne.n	2f12 <setvbuf+0x3a>
    2ef4:	e002      	b.n	2efc <setvbuf+0x24>
    2ef6:	6a41      	ldr	r1, [r0, #36]	; 0x24
    2ef8:	2301      	movs	r3, #1
    2efa:	e003      	b.n	2f04 <setvbuf+0x2c>
    2efc:	4d07      	ldr	r5, [pc, #28]	; (2f1c <setvbuf+0x44>)
    2efe:	1e5e      	subs	r6, r3, #1
    2f00:	42ae      	cmp	r6, r5
    2f02:	d808      	bhi.n	2f16 <setvbuf+0x3e>
    2f04:	4322      	orrs	r2, r4
    2f06:	6101      	str	r1, [r0, #16]
    2f08:	6001      	str	r1, [r0, #0]
    2f0a:	61c3      	str	r3, [r0, #28]
    2f0c:	60c2      	str	r2, [r0, #12]
    2f0e:	2000      	movs	r0, #0
    2f10:	bd70      	pop	{r4, r5, r6, pc}
    2f12:	2001      	movs	r0, #1
    2f14:	bd70      	pop	{r4, r5, r6, pc}
    2f16:	2001      	movs	r0, #1
    2f18:	bd70      	pop	{r4, r5, r6, pc}
    2f1a:	bf00      	nop
    2f1c:	00fffffe 	.word	0x00fffffe

00002f20 <strcpy>:
    2f20:	ea41 0300 	orr.w	r3, r1, r0
    2f24:	079b      	lsls	r3, r3, #30
    2f26:	b530      	push	{r4, r5, lr}
    2f28:	d114      	bne.n	2f54 <strcpy+0x34>
    2f2a:	4602      	mov	r2, r0
    2f2c:	e002      	b.n	2f34 <strcpy+0x14>
    2f2e:	f842 3c04 	str.w	r3, [r2, #-4]
    2f32:	3104      	adds	r1, #4
    2f34:	680b      	ldr	r3, [r1, #0]
    2f36:	4614      	mov	r4, r2
    2f38:	f1a3 3501 	sub.w	r5, r3, #16843009	; 0x1010101
    2f3c:	ea25 0503 	bic.w	r5, r5, r3
    2f40:	3204      	adds	r2, #4
    2f42:	f015 3f80 	tst.w	r5, #2155905152	; 0x80808080
    2f46:	d0f2      	beq.n	2f2e <strcpy+0xe>
    2f48:	b2da      	uxtb	r2, r3
    2f4a:	f804 2b01 	strb.w	r2, [r4], #1
    2f4e:	b142      	cbz	r2, 2f62 <strcpy+0x42>
    2f50:	121b      	asrs	r3, r3, #8
    2f52:	e7f9      	b.n	2f48 <strcpy+0x28>
    2f54:	4603      	mov	r3, r0
    2f56:	f811 2b01 	ldrb.w	r2, [r1], #1
    2f5a:	f803 2b01 	strb.w	r2, [r3], #1
    2f5e:	2a00      	cmp	r2, #0
    2f60:	d1f9      	bne.n	2f56 <strcpy+0x36>
    2f62:	bd30      	pop	{r4, r5, pc}

00002f64 <strlen>:
    2f64:	1c41      	adds	r1, r0, #1
    2f66:	e004      	b.n	2f72 <strlen+0xe>
    2f68:	781b      	ldrb	r3, [r3, #0]
    2f6a:	3001      	adds	r0, #1
    2f6c:	b90b      	cbnz	r3, 2f72 <strlen+0xe>
    2f6e:	1a40      	subs	r0, r0, r1
    2f70:	4770      	bx	lr
    2f72:	0782      	lsls	r2, r0, #30
    2f74:	4603      	mov	r3, r0
    2f76:	d1f7      	bne.n	2f68 <strlen+0x4>
    2f78:	e000      	b.n	2f7c <strlen+0x18>
    2f7a:	3304      	adds	r3, #4
    2f7c:	681a      	ldr	r2, [r3, #0]
    2f7e:	f1a2 3001 	sub.w	r0, r2, #16843009	; 0x1010101
    2f82:	ea20 0002 	bic.w	r0, r0, r2
    2f86:	f010 3f80 	tst.w	r0, #2155905152	; 0x80808080
    2f8a:	d0f6      	beq.n	2f7a <strlen+0x16>
    2f8c:	f012 0fff 	tst.w	r2, #255	; 0xff
    2f90:	d00b      	beq.n	2faa <strlen+0x46>
    2f92:	f412 4f7f 	tst.w	r2, #65280	; 0xff00
    2f96:	d006      	beq.n	2fa6 <strlen+0x42>
    2f98:	f412 0f7f 	tst.w	r2, #16711680	; 0xff0000
    2f9c:	d001      	beq.n	2fa2 <strlen+0x3e>
    2f9e:	3304      	adds	r3, #4
    2fa0:	e004      	b.n	2fac <strlen+0x48>
    2fa2:	3303      	adds	r3, #3
    2fa4:	e002      	b.n	2fac <strlen+0x48>
    2fa6:	3302      	adds	r3, #2
    2fa8:	e000      	b.n	2fac <strlen+0x48>
    2faa:	3301      	adds	r3, #1
    2fac:	1a58      	subs	r0, r3, r1
    2fae:	4770      	bx	lr

00002fb0 <strncpy>:
    2fb0:	ea41 0300 	orr.w	r3, r1, r0
    2fb4:	079b      	lsls	r3, r3, #30
    2fb6:	b570      	push	{r4, r5, r6, lr}
    2fb8:	d120      	bne.n	2ffc <strncpy+0x4c>
    2fba:	4603      	mov	r3, r0
    2fbc:	e003      	b.n	2fc6 <strncpy+0x16>
    2fbe:	f843 5c04 	str.w	r5, [r3, #-4]
    2fc2:	3104      	adds	r1, #4
    2fc4:	3a04      	subs	r2, #4
    2fc6:	2a03      	cmp	r2, #3
    2fc8:	461c      	mov	r4, r3
    2fca:	d918      	bls.n	2ffe <strncpy+0x4e>
    2fcc:	680d      	ldr	r5, [r1, #0]
    2fce:	3304      	adds	r3, #4
    2fd0:	f1a5 3601 	sub.w	r6, r5, #16843009	; 0x1010101
    2fd4:	ea26 0605 	bic.w	r6, r6, r5
    2fd8:	f016 3f80 	tst.w	r6, #2155905152	; 0x80808080
    2fdc:	d0ef      	beq.n	2fbe <strncpy+0xe>
    2fde:	e00e      	b.n	2ffe <strncpy+0x4e>
    2fe0:	f811 3b01 	ldrb.w	r3, [r1], #1
    2fe4:	3a01      	subs	r2, #1
    2fe6:	f804 3b01 	strb.w	r3, [r4], #1
    2fea:	4625      	mov	r5, r4
    2fec:	b93b      	cbnz	r3, 2ffe <strncpy+0x4e>
    2fee:	4619      	mov	r1, r3
    2ff0:	e001      	b.n	2ff6 <strncpy+0x46>
    2ff2:	54e9      	strb	r1, [r5, r3]
    2ff4:	3301      	adds	r3, #1
    2ff6:	4293      	cmp	r3, r2
    2ff8:	d1fb      	bne.n	2ff2 <strncpy+0x42>
    2ffa:	bd70      	pop	{r4, r5, r6, pc}
    2ffc:	4604      	mov	r4, r0
    2ffe:	2a00      	cmp	r2, #0
    3000:	d1ee      	bne.n	2fe0 <strncpy+0x30>
    3002:	bd70      	pop	{r4, r5, r6, pc}

00003004 <_deferredlazyseek>:
    3004:	68c3      	ldr	r3, [r0, #12]
    3006:	b510      	push	{r4, lr}
    3008:	f023 0320 	bic.w	r3, r3, #32
    300c:	60c3      	str	r3, [r0, #12]
    300e:	6a43      	ldr	r3, [r0, #36]	; 0x24
    3010:	6982      	ldr	r2, [r0, #24]
    3012:	685b      	ldr	r3, [r3, #4]
    3014:	4604      	mov	r4, r0
    3016:	429a      	cmp	r2, r3
    3018:	d00f      	beq.n	303a <_deferredlazyseek+0x36>
    301a:	f000 f8f2 	bl	3202 <_fflush>
    301e:	68e3      	ldr	r3, [r4, #12]
    3020:	6a62      	ldr	r2, [r4, #36]	; 0x24
    3022:	f423 5340 	bic.w	r3, r3, #12288	; 0x3000
    3026:	f023 0310 	bic.w	r3, r3, #16
    302a:	f043 0310 	orr.w	r3, r3, #16
    302e:	60e3      	str	r3, [r4, #12]
    3030:	6853      	ldr	r3, [r2, #4]
    3032:	61a3      	str	r3, [r4, #24]
    3034:	6923      	ldr	r3, [r4, #16]
    3036:	6093      	str	r3, [r2, #8]
    3038:	6023      	str	r3, [r4, #0]
    303a:	68e3      	ldr	r3, [r4, #12]
    303c:	f423 4380 	bic.w	r3, r3, #16384	; 0x4000
    3040:	f023 0340 	bic.w	r3, r3, #64	; 0x40
    3044:	60e3      	str	r3, [r4, #12]
    3046:	bd10      	pop	{r4, pc}

00003048 <__flsbuf>:
    3048:	b5f8      	push	{r3, r4, r5, r6, r7, lr}
    304a:	68cb      	ldr	r3, [r1, #12]
    304c:	4606      	mov	r6, r0
    304e:	f423 2200 	bic.w	r2, r3, #524288	; 0x80000
    3052:	60ca      	str	r2, [r1, #12]
    3054:	069a      	lsls	r2, r3, #26
    3056:	460c      	mov	r4, r1
    3058:	d502      	bpl.n	3060 <__flsbuf+0x18>
    305a:	4608      	mov	r0, r1
    305c:	f7ff ffd2 	bl	3004 <_deferredlazyseek>
    3060:	68a1      	ldr	r1, [r4, #8]
    3062:	1c4b      	adds	r3, r1, #1
    3064:	da0f      	bge.n	3086 <__flsbuf+0x3e>
    3066:	68e2      	ldr	r2, [r4, #12]
    3068:	0590      	lsls	r0, r2, #22
    306a:	d40c      	bmi.n	3086 <__flsbuf+0x3e>
    306c:	f06f 0301 	mvn.w	r3, #1
    3070:	1a5b      	subs	r3, r3, r1
    3072:	60a3      	str	r3, [r4, #8]
    3074:	6823      	ldr	r3, [r4, #0]
    3076:	f442 3290 	orr.w	r2, r2, #73728	; 0x12000
    307a:	b2f0      	uxtb	r0, r6
    307c:	60e2      	str	r2, [r4, #12]
    307e:	f803 0b01 	strb.w	r0, [r3], #1
    3082:	6023      	str	r3, [r4, #0]
    3084:	bdf8      	pop	{r3, r4, r5, r6, r7, pc}
    3086:	68e5      	ldr	r5, [r4, #12]
    3088:	f241 028a 	movw	r2, #4234	; 0x108a
    308c:	402a      	ands	r2, r5
    308e:	2a02      	cmp	r2, #2
    3090:	d007      	beq.n	30a2 <__flsbuf+0x5a>
    3092:	2300      	movs	r3, #0
    3094:	f045 0580 	orr.w	r5, r5, #128	; 0x80
    3098:	60a3      	str	r3, [r4, #8]
    309a:	60e5      	str	r5, [r4, #12]
    309c:	f04f 30ff 	mov.w	r0, #4294967295
    30a0:	bdf8      	pop	{r3, r4, r5, r6, r7, pc}
    30a2:	f24a 0310 	movw	r3, #40976	; 0xa010
    30a6:	402b      	ands	r3, r5
    30a8:	f5b3 4f00 	cmp.w	r3, #32768	; 0x8000
    30ac:	d10a      	bne.n	30c4 <__flsbuf+0x7c>
    30ae:	2100      	movs	r1, #0
    30b0:	4620      	mov	r0, r4
    30b2:	f000 fa31 	bl	3518 <fseek>
    30b6:	68e3      	ldr	r3, [r4, #12]
    30b8:	069a      	lsls	r2, r3, #26
    30ba:	d502      	bpl.n	30c2 <__flsbuf+0x7a>
    30bc:	4620      	mov	r0, r4
    30be:	f7ff ffa1 	bl	3004 <_deferredlazyseek>
    30c2:	68e5      	ldr	r5, [r4, #12]
    30c4:	f445 3790 	orr.w	r7, r5, #73728	; 0x12000
    30c8:	f417 6f70 	tst.w	r7, #3840	; 0xf00
    30cc:	60e7      	str	r7, [r4, #12]
    30ce:	d11c      	bne.n	310a <__flsbuf+0xc2>
    30d0:	6960      	ldr	r0, [r4, #20]
    30d2:	f000 ff09 	bl	3ee8 <__sys_istty>
    30d6:	b150      	cbz	r0, 30ee <__flsbuf+0xa6>
    30d8:	057b      	lsls	r3, r7, #21
    30da:	d508      	bpl.n	30ee <__flsbuf+0xa6>
    30dc:	6a63      	ldr	r3, [r4, #36]	; 0x24
    30de:	f445 3792 	orr.w	r7, r5, #74752	; 0x12400
    30e2:	6123      	str	r3, [r4, #16]
    30e4:	6023      	str	r3, [r4, #0]
    30e6:	2301      	movs	r3, #1
    30e8:	61e3      	str	r3, [r4, #28]
    30ea:	60e7      	str	r7, [r4, #12]
    30ec:	e00d      	b.n	310a <__flsbuf+0xc2>
    30ee:	f44f 5080 	mov.w	r0, #4096	; 0x1000
    30f2:	f000 f9b1 	bl	3458 <_Csys_alloc>
    30f6:	f44f 5380 	mov.w	r3, #4096	; 0x1000
    30fa:	61e3      	str	r3, [r4, #28]
    30fc:	68e3      	ldr	r3, [r4, #12]
    30fe:	f447 6700 	orr.w	r7, r7, #2048	; 0x800
    3102:	433b      	orrs	r3, r7
    3104:	6120      	str	r0, [r4, #16]
    3106:	6020      	str	r0, [r4, #0]
    3108:	60e3      	str	r3, [r4, #12]
    310a:	f417 6f10 	tst.w	r7, #2304	; 0x900
    310e:	6821      	ldr	r1, [r4, #0]
    3110:	6925      	ldr	r5, [r4, #16]
    3112:	d019      	beq.n	3148 <__flsbuf+0x100>
    3114:	6a63      	ldr	r3, [r4, #36]	; 0x24
    3116:	689b      	ldr	r3, [r3, #8]
    3118:	428b      	cmp	r3, r1
    311a:	bf2c      	ite	cs
    311c:	ebc5 0103 	rsbcs	r1, r5, r3
    3120:	ebc5 0101 	rsbcc	r1, r5, r1
    3124:	b129      	cbz	r1, 3132 <__flsbuf+0xea>
    3126:	4628      	mov	r0, r5
    3128:	4622      	mov	r2, r4
    312a:	f000 f8ef 	bl	330c <_Cwritebuf>
    312e:	2800      	cmp	r0, #0
    3130:	d12e      	bne.n	3190 <__flsbuf+0x148>
    3132:	6a63      	ldr	r3, [r4, #36]	; 0x24
    3134:	1c6a      	adds	r2, r5, #1
    3136:	609a      	str	r2, [r3, #8]
    3138:	6022      	str	r2, [r4, #0]
    313a:	69e2      	ldr	r2, [r4, #28]
    313c:	b2f0      	uxtb	r0, r6
    313e:	1e51      	subs	r1, r2, #1
    3140:	60a1      	str	r1, [r4, #8]
    3142:	60da      	str	r2, [r3, #12]
    3144:	7028      	strb	r0, [r5, #0]
    3146:	bdf8      	pop	{r3, r4, r5, r6, r7, pc}
    3148:	b2f6      	uxtb	r6, r6
    314a:	f801 6b01 	strb.w	r6, [r1], #1
    314e:	6a63      	ldr	r3, [r4, #36]	; 0x24
    3150:	6021      	str	r1, [r4, #0]
    3152:	689a      	ldr	r2, [r3, #8]
    3154:	4291      	cmp	r1, r2
    3156:	bf2c      	ite	cs
    3158:	ebc5 0101 	rsbcs	r1, r5, r1
    315c:	ebc5 0102 	rsbcc	r1, r5, r2
    3160:	69e2      	ldr	r2, [r4, #28]
    3162:	0578      	lsls	r0, r7, #21
    3164:	60da      	str	r2, [r3, #12]
    3166:	d403      	bmi.n	3170 <__flsbuf+0x128>
    3168:	2e0a      	cmp	r6, #10
    316a:	d001      	beq.n	3170 <__flsbuf+0x128>
    316c:	4291      	cmp	r1, r2
    316e:	db0d      	blt.n	318c <__flsbuf+0x144>
    3170:	609d      	str	r5, [r3, #8]
    3172:	2300      	movs	r3, #0
    3174:	6025      	str	r5, [r4, #0]
    3176:	60a3      	str	r3, [r4, #8]
    3178:	4628      	mov	r0, r5
    317a:	4622      	mov	r2, r4
    317c:	f000 f8c6 	bl	330c <_Cwritebuf>
    3180:	2800      	cmp	r0, #0
    3182:	bf0c      	ite	eq
    3184:	4630      	moveq	r0, r6
    3186:	f04f 30ff 	movne.w	r0, #4294967295
    318a:	bdf8      	pop	{r3, r4, r5, r6, r7, pc}
    318c:	4630      	mov	r0, r6
    318e:	bdf8      	pop	{r3, r4, r5, r6, r7, pc}
    3190:	f04f 30ff 	mov.w	r0, #4294967295
    3194:	bdf8      	pop	{r3, r4, r5, r6, r7, pc}

00003196 <_fdopen>:
    3196:	b570      	push	{r4, r5, r6, lr}
    3198:	460e      	mov	r6, r1
    319a:	4605      	mov	r5, r0
    319c:	4610      	mov	r0, r2
    319e:	4614      	mov	r4, r2
    31a0:	f000 f96a 	bl	3478 <fclose>
    31a4:	7833      	ldrb	r3, [r6, #0]
    31a6:	2b72      	cmp	r3, #114	; 0x72
    31a8:	d004      	beq.n	31b4 <_fdopen+0x1e>
    31aa:	2b77      	cmp	r3, #119	; 0x77
    31ac:	d009      	beq.n	31c2 <_fdopen+0x2c>
    31ae:	2b61      	cmp	r3, #97	; 0x61
    31b0:	d124      	bne.n	31fc <_fdopen+0x66>
    31b2:	e002      	b.n	31ba <_fdopen+0x24>
    31b4:	2300      	movs	r3, #0
    31b6:	2201      	movs	r2, #1
    31b8:	e005      	b.n	31c6 <_fdopen+0x30>
    31ba:	2308      	movs	r3, #8
    31bc:	f248 0202 	movw	r2, #32770	; 0x8002
    31c0:	e001      	b.n	31c6 <_fdopen+0x30>
    31c2:	2304      	movs	r3, #4
    31c4:	2202      	movs	r2, #2
    31c6:	f816 1f01 	ldrb.w	r1, [r6, #1]!
    31ca:	292b      	cmp	r1, #43	; 0x2b
    31cc:	d002      	beq.n	31d4 <_fdopen+0x3e>
    31ce:	2962      	cmp	r1, #98	; 0x62
    31d0:	d10a      	bne.n	31e8 <_fdopen+0x52>
    31d2:	e004      	b.n	31de <_fdopen+0x48>
    31d4:	f042 0203 	orr.w	r2, r2, #3
    31d8:	f043 0302 	orr.w	r3, r3, #2
    31dc:	e7f3      	b.n	31c6 <_fdopen+0x30>
    31de:	f042 0204 	orr.w	r2, r2, #4
    31e2:	f043 0301 	orr.w	r3, r3, #1
    31e6:	e7ee      	b.n	31c6 <_fdopen+0x30>
    31e8:	071b      	lsls	r3, r3, #28
    31ea:	60e2      	str	r2, [r4, #12]
    31ec:	6165      	str	r5, [r4, #20]
    31ee:	d506      	bpl.n	31fe <_fdopen+0x68>
    31f0:	4620      	mov	r0, r4
    31f2:	2100      	movs	r1, #0
    31f4:	2202      	movs	r2, #2
    31f6:	f000 f98f 	bl	3518 <fseek>
    31fa:	e000      	b.n	31fe <_fdopen+0x68>
    31fc:	2400      	movs	r4, #0
    31fe:	4620      	mov	r0, r4
    3200:	bd70      	pop	{r4, r5, r6, pc}

00003202 <_fflush>:
    3202:	b538      	push	{r3, r4, r5, lr}
    3204:	6a42      	ldr	r2, [r0, #36]	; 0x24
    3206:	4604      	mov	r4, r0
    3208:	6905      	ldr	r5, [r0, #16]
    320a:	6803      	ldr	r3, [r0, #0]
    320c:	68c0      	ldr	r0, [r0, #12]
    320e:	6891      	ldr	r1, [r2, #8]
    3210:	f420 2200 	bic.w	r2, r0, #524288	; 0x80000
    3214:	60e2      	str	r2, [r4, #12]
    3216:	f000 0282 	and.w	r2, r0, #130	; 0x82
    321a:	2a02      	cmp	r2, #2
    321c:	d117      	bne.n	324e <_fflush+0x4c>
    321e:	f410 3080 	ands.w	r0, r0, #65536	; 0x10000
    3222:	d019      	beq.n	3258 <_fflush+0x56>
    3224:	4299      	cmp	r1, r3
    3226:	bf38      	it	cc
    3228:	4619      	movcc	r1, r3
    322a:	42a9      	cmp	r1, r5
    322c:	d005      	beq.n	323a <_fflush+0x38>
    322e:	1b49      	subs	r1, r1, r5
    3230:	4628      	mov	r0, r5
    3232:	4622      	mov	r2, r4
    3234:	f000 f86a 	bl	330c <_Cwritebuf>
    3238:	b960      	cbnz	r0, 3254 <_fflush+0x52>
    323a:	6a63      	ldr	r3, [r4, #36]	; 0x24
    323c:	2000      	movs	r0, #0
    323e:	609d      	str	r5, [r3, #8]
    3240:	68e3      	ldr	r3, [r4, #12]
    3242:	6025      	str	r5, [r4, #0]
    3244:	f423 3380 	bic.w	r3, r3, #65536	; 0x10000
    3248:	60a0      	str	r0, [r4, #8]
    324a:	60e3      	str	r3, [r4, #12]
    324c:	bd38      	pop	{r3, r4, r5, pc}
    324e:	f04f 30ff 	mov.w	r0, #4294967295
    3252:	bd38      	pop	{r3, r4, r5, pc}
    3254:	f04f 30ff 	mov.w	r0, #4294967295
    3258:	bd38      	pop	{r3, r4, r5, pc}

0000325a <_frexpl>:
    325a:	b5f8      	push	{r3, r4, r5, r6, r7, lr}
    325c:	4614      	mov	r4, r2
    325e:	2300      	movs	r3, #0
    3260:	2200      	movs	r2, #0
    3262:	4606      	mov	r6, r0
    3264:	460f      	mov	r7, r1
    3266:	f000 fd75 	bl	3d54 <__aeabi_dcmpeq>
    326a:	b120      	cbz	r0, 3276 <_frexpl+0x1c>
    326c:	2300      	movs	r3, #0
    326e:	6023      	str	r3, [r4, #0]
    3270:	2000      	movs	r0, #0
    3272:	2100      	movs	r1, #0
    3274:	bdf8      	pop	{r3, r4, r5, r6, r7, pc}
    3276:	f3c7 530a 	ubfx	r3, r7, #20, #11
    327a:	f5a3 727e 	sub.w	r2, r3, #1016	; 0x3f8
    327e:	3a06      	subs	r2, #6
    3280:	b99b      	cbnz	r3, 32aa <_frexpl+0x50>
    3282:	f3c7 0313 	ubfx	r3, r7, #0, #20
    3286:	4631      	mov	r1, r6
    3288:	0fcd      	lsrs	r5, r1, #31
    328a:	4618      	mov	r0, r3
    328c:	ea45 0343 	orr.w	r3, r5, r3, lsl #1
    3290:	f023 437f 	bic.w	r3, r3, #4278190080	; 0xff000000
    3294:	0049      	lsls	r1, r1, #1
    3296:	0300      	lsls	r0, r0, #12
    3298:	f423 0370 	bic.w	r3, r3, #15728640	; 0xf00000
    329c:	d503      	bpl.n	32a6 <_frexpl+0x4c>
    329e:	f363 0713 	bfi	r7, r3, #0, #20
    32a2:	460e      	mov	r6, r1
    32a4:	e001      	b.n	32aa <_frexpl+0x50>
    32a6:	3a01      	subs	r2, #1
    32a8:	e7ee      	b.n	3288 <_frexpl+0x2e>
    32aa:	f240 33fe 	movw	r3, #1022	; 0x3fe
    32ae:	f363 571e 	bfi	r7, r3, #20, #11
    32b2:	6022      	str	r2, [r4, #0]
    32b4:	4630      	mov	r0, r6
    32b6:	4639      	mov	r1, r7
    32b8:	bdf8      	pop	{r3, r4, r5, r6, r7, pc}
	...

000032bc <_ldexpl>:
    32bc:	b570      	push	{r4, r5, r6, lr}
    32be:	2300      	movs	r3, #0
    32c0:	4616      	mov	r6, r2
    32c2:	2200      	movs	r2, #0
    32c4:	4604      	mov	r4, r0
    32c6:	460d      	mov	r5, r1
    32c8:	f000 fd44 	bl	3d54 <__aeabi_dcmpeq>
    32cc:	b9a0      	cbnz	r0, 32f8 <_ldexpl+0x3c>
    32ce:	f3c5 530a 	ubfx	r3, r5, #20, #11
    32d2:	199e      	adds	r6, r3, r6
    32d4:	f240 73fe 	movw	r3, #2046	; 0x7fe
    32d8:	429e      	cmp	r6, r3
    32da:	dd06      	ble.n	32ea <_ldexpl+0x2e>
    32dc:	4b09      	ldr	r3, [pc, #36]	; (3304 <_ldexpl+0x48>)
    32de:	2222      	movs	r2, #34	; 0x22
    32e0:	601a      	str	r2, [r3, #0]
    32e2:	4b09      	ldr	r3, [pc, #36]	; (3308 <_ldexpl+0x4c>)
    32e4:	e9d3 0100 	ldrd	r0, r1, [r3]
    32e8:	bd70      	pop	{r4, r5, r6, pc}
    32ea:	2e00      	cmp	r6, #0
    32ec:	dd07      	ble.n	32fe <_ldexpl+0x42>
    32ee:	f366 551e 	bfi	r5, r6, #20, #11
    32f2:	4620      	mov	r0, r4
    32f4:	4629      	mov	r1, r5
    32f6:	bd70      	pop	{r4, r5, r6, pc}
    32f8:	2000      	movs	r0, #0
    32fa:	2100      	movs	r1, #0
    32fc:	bd70      	pop	{r4, r5, r6, pc}
    32fe:	2000      	movs	r0, #0
    3300:	2100      	movs	r1, #0
    3302:	bd70      	pop	{r4, r5, r6, pc}
    3304:	10002970 	.word	0x10002970
    3308:	00004088 	.word	0x00004088

0000330c <_Cwritebuf>:
    330c:	e92d 41f0 	stmdb	sp!, {r4, r5, r6, r7, r8, lr}
    3310:	68d7      	ldr	r7, [r2, #12]
    3312:	4606      	mov	r6, r0
    3314:	02fb      	lsls	r3, r7, #11
    3316:	460d      	mov	r5, r1
    3318:	4614      	mov	r4, r2
    331a:	f8d2 8014 	ldr.w	r8, [r2, #20]
    331e:	d505      	bpl.n	332c <_Cwritebuf+0x20>
    3320:	4640      	mov	r0, r8
    3322:	f000 fddb 	bl	3edc <__sys_flen>
    3326:	f047 0710 	orr.w	r7, r7, #16
    332a:	61a0      	str	r0, [r4, #24]
    332c:	4b17      	ldr	r3, [pc, #92]	; (338c <_Cwritebuf+0x80>)
    332e:	403b      	ands	r3, r7
    3330:	b193      	cbz	r3, 3358 <_Cwritebuf+0x4c>
    3332:	4640      	mov	r0, r8
    3334:	69a1      	ldr	r1, [r4, #24]
    3336:	f000 fde3 	bl	3f00 <__sys_seek>
    333a:	2800      	cmp	r0, #0
    333c:	da07      	bge.n	334e <_Cwritebuf+0x42>
    333e:	68e3      	ldr	r3, [r4, #12]
    3340:	f04f 30ff 	mov.w	r0, #4294967295
    3344:	f043 0380 	orr.w	r3, r3, #128	; 0x80
    3348:	60e3      	str	r3, [r4, #12]
    334a:	e8bd 81f0 	ldmia.w	sp!, {r4, r5, r6, r7, r8, pc}
    334e:	f427 3700 	bic.w	r7, r7, #131072	; 0x20000
    3352:	f027 0710 	bic.w	r7, r7, #16
    3356:	60e7      	str	r7, [r4, #12]
    3358:	462a      	mov	r2, r5
    335a:	4640      	mov	r0, r8
    335c:	4631      	mov	r1, r6
    335e:	f7fe f98d 	bl	167c <__sys_write>
    3362:	42a8      	cmp	r0, r5
    3364:	bf14      	ite	ne
    3366:	f04f 30ff 	movne.w	r0, #4294967295
    336a:	2000      	moveq	r0, #0
    336c:	f020 4300 	bic.w	r3, r0, #2147483648	; 0x80000000
    3370:	1aed      	subs	r5, r5, r3
    3372:	69a3      	ldr	r3, [r4, #24]
    3374:	195d      	adds	r5, r3, r5
    3376:	61a5      	str	r5, [r4, #24]
    3378:	b128      	cbz	r0, 3386 <_Cwritebuf+0x7a>
    337a:	68e3      	ldr	r3, [r4, #12]
    337c:	f04f 30ff 	mov.w	r0, #4294967295
    3380:	f043 0380 	orr.w	r3, r3, #128	; 0x80
    3384:	60e3      	str	r3, [r4, #12]
    3386:	e8bd 81f0 	ldmia.w	sp!, {r4, r5, r6, r7, r8, pc}
    338a:	bf00      	nop
    338c:	00020010 	.word	0x00020010

00003390 <malloc>:
    3390:	b5f8      	push	{r3, r4, r5, r6, r7, lr}
    3392:	4b2d      	ldr	r3, [pc, #180]	; (3448 <malloc+0xb8>)
    3394:	1cc5      	adds	r5, r0, #3
    3396:	681c      	ldr	r4, [r3, #0]
    3398:	08ad      	lsrs	r5, r5, #2
    339a:	2800      	cmp	r0, #0
    339c:	d053      	beq.n	3446 <malloc+0xb6>
    339e:	2700      	movs	r7, #0
    33a0:	1cea      	adds	r2, r5, #3
    33a2:	e03a      	b.n	341a <malloc+0x8a>
    33a4:	6821      	ldr	r1, [r4, #0]
    33a6:	f1b1 5f80 	cmp.w	r1, #268435456	; 0x10000000
    33aa:	d134      	bne.n	3416 <malloc+0x86>
    33ac:	68a6      	ldr	r6, [r4, #8]
    33ae:	6833      	ldr	r3, [r6, #0]
    33b0:	f1b3 5f80 	cmp.w	r3, #268435456	; 0x10000000
    33b4:	6863      	ldr	r3, [r4, #4]
    33b6:	d106      	bne.n	33c6 <malloc+0x36>
    33b8:	6871      	ldr	r1, [r6, #4]
    33ba:	185b      	adds	r3, r3, r1
    33bc:	3303      	adds	r3, #3
    33be:	6063      	str	r3, [r4, #4]
    33c0:	68b3      	ldr	r3, [r6, #8]
    33c2:	60a3      	str	r3, [r4, #8]
    33c4:	e029      	b.n	341a <malloc+0x8a>
    33c6:	42ab      	cmp	r3, r5
    33c8:	d105      	bne.n	33d6 <malloc+0x46>
    33ca:	4620      	mov	r0, r4
    33cc:	f04f 5300 	mov.w	r3, #536870912	; 0x20000000
    33d0:	f840 3b0c 	str.w	r3, [r0], #12
    33d4:	bdf8      	pop	{r3, r4, r5, r6, r7, pc}
    33d6:	4293      	cmp	r3, r2
    33d8:	d90f      	bls.n	33fa <malloc+0x6a>
    33da:	4620      	mov	r0, r4
    33dc:	f04f 5200 	mov.w	r2, #536870912	; 0x20000000
    33e0:	f840 2b0c 	str.w	r2, [r0], #12
    33e4:	1b5b      	subs	r3, r3, r5
    33e6:	eb00 0285 	add.w	r2, r0, r5, lsl #2
    33ea:	3b03      	subs	r3, #3
    33ec:	6065      	str	r5, [r4, #4]
    33ee:	60a2      	str	r2, [r4, #8]
    33f0:	f840 1025 	str.w	r1, [r0, r5, lsl #2]
    33f4:	6053      	str	r3, [r2, #4]
    33f6:	6096      	str	r6, [r2, #8]
    33f8:	bdf8      	pop	{r3, r4, r5, r6, r7, pc}
    33fa:	b966      	cbnz	r6, 3416 <malloc+0x86>
    33fc:	009b      	lsls	r3, r3, #2
    33fe:	1ac0      	subs	r0, r0, r3
    3400:	f000 fd8a 	bl	3f18 <_sbrk>
    3404:	3001      	adds	r0, #1
    3406:	d01b      	beq.n	3440 <malloc+0xb0>
    3408:	f04f 5300 	mov.w	r3, #536870912	; 0x20000000
    340c:	e884 0028 	stmia.w	r4, {r3, r5}
    3410:	f104 000c 	add.w	r0, r4, #12
    3414:	bdf8      	pop	{r3, r4, r5, r6, r7, pc}
    3416:	4627      	mov	r7, r4
    3418:	68a4      	ldr	r4, [r4, #8]
    341a:	2c00      	cmp	r4, #0
    341c:	d1c2      	bne.n	33a4 <malloc+0x14>
    341e:	300c      	adds	r0, #12
    3420:	f000 fd7a 	bl	3f18 <_sbrk>
    3424:	1c43      	adds	r3, r0, #1
    3426:	d00d      	beq.n	3444 <malloc+0xb4>
    3428:	f04f 5300 	mov.w	r3, #536870912	; 0x20000000
    342c:	e880 0028 	stmia.w	r0, {r3, r5}
    3430:	6084      	str	r4, [r0, #8]
    3432:	b917      	cbnz	r7, 343a <malloc+0xaa>
    3434:	4b04      	ldr	r3, [pc, #16]	; (3448 <malloc+0xb8>)
    3436:	6018      	str	r0, [r3, #0]
    3438:	e000      	b.n	343c <malloc+0xac>
    343a:	60b8      	str	r0, [r7, #8]
    343c:	300c      	adds	r0, #12
    343e:	bdf8      	pop	{r3, r4, r5, r6, r7, pc}
    3440:	4630      	mov	r0, r6
    3442:	bdf8      	pop	{r3, r4, r5, r6, r7, pc}
    3444:	4620      	mov	r0, r4
    3446:	bdf8      	pop	{r3, r4, r5, r6, r7, pc}
    3448:	10002ab8 	.word	0x10002ab8

0000344c <free>:
    344c:	b118      	cbz	r0, 3456 <free+0xa>
    344e:	f04f 5380 	mov.w	r3, #268435456	; 0x10000000
    3452:	f840 3c0c 	str.w	r3, [r0, #-12]
    3456:	4770      	bx	lr

00003458 <_Csys_alloc>:
    3458:	b510      	push	{r4, lr}
    345a:	f7ff ff99 	bl	3390 <malloc>
    345e:	4604      	mov	r4, r0
    3460:	b928      	cbnz	r0, 346e <_Csys_alloc+0x16>
    3462:	4904      	ldr	r1, [pc, #16]	; (3474 <_Csys_alloc+0x1c>)
    3464:	2217      	movs	r2, #23
    3466:	f7fe f909 	bl	167c <__sys_write>
    346a:	f000 fd2b 	bl	3ec4 <__exit>
    346e:	4620      	mov	r0, r4
    3470:	bd10      	pop	{r4, pc}
    3472:	bf00      	nop
    3474:	0000406d 	.word	0x0000406d

00003478 <fclose>:
    3478:	e92d 41f0 	stmdb	sp!, {r4, r5, r6, r7, r8, lr}
    347c:	f100 060c 	add.w	r6, r0, #12
    3480:	e896 01c0 	ldmia.w	r6, {r6, r7, r8}
    3484:	07b1      	lsls	r1, r6, #30
    3486:	b086      	sub	sp, #24
    3488:	4604      	mov	r4, r0
    348a:	6a45      	ldr	r5, [r0, #36]	; 0x24
    348c:	d025      	beq.n	34da <fclose+0x62>
    348e:	0732      	lsls	r2, r6, #28
    3490:	d416      	bmi.n	34c0 <fclose+0x48>
    3492:	f000 f827 	bl	34e4 <fflush>
    3496:	4640      	mov	r0, r8
    3498:	f000 fd1a 	bl	3ed0 <__sys_close>
    349c:	0533      	lsls	r3, r6, #20
    349e:	d502      	bpl.n	34a6 <fclose+0x2e>
    34a0:	4638      	mov	r0, r7
    34a2:	f7ff ffd3 	bl	344c <free>
    34a6:	0db6      	lsrs	r6, r6, #22
    34a8:	05b6      	lsls	r6, r6, #22
    34aa:	f116 4fa5 	cmn.w	r6, #1384120320	; 0x52800000
    34ae:	d107      	bne.n	34c0 <fclose+0x48>
    34b0:	a801      	add	r0, sp, #4
    34b2:	6a21      	ldr	r1, [r4, #32]
    34b4:	2214      	movs	r2, #20
    34b6:	f000 fd29 	bl	3f0c <__sys_tmpnam>
    34ba:	a801      	add	r0, sp, #4
    34bc:	f000 f8d4 	bl	3668 <remove>
    34c0:	2100      	movs	r1, #0
    34c2:	2218      	movs	r2, #24
    34c4:	6a60      	ldr	r0, [r4, #36]	; 0x24
    34c6:	f7fe f8e9 	bl	169c <memset>
    34ca:	4620      	mov	r0, r4
    34cc:	2100      	movs	r1, #0
    34ce:	2228      	movs	r2, #40	; 0x28
    34d0:	f7fe f8e4 	bl	169c <memset>
    34d4:	6265      	str	r5, [r4, #36]	; 0x24
    34d6:	2000      	movs	r0, #0
    34d8:	e001      	b.n	34de <fclose+0x66>
    34da:	f04f 30ff 	mov.w	r0, #4294967295
    34de:	b006      	add	sp, #24
    34e0:	e8bd 81f0 	ldmia.w	sp!, {r4, r5, r6, r7, r8, pc}

000034e4 <fflush>:
    34e4:	b5f8      	push	{r3, r4, r5, r6, r7, lr}
    34e6:	b118      	cbz	r0, 34f0 <fflush+0xc>
    34e8:	e8bd 40f8 	ldmia.w	sp!, {r3, r4, r5, r6, r7, lr}
    34ec:	f000 b8c6 	b.w	367c <_do_fflush>
    34f0:	4e08      	ldr	r6, [pc, #32]	; (3514 <fflush+0x30>)
    34f2:	4604      	mov	r4, r0
    34f4:	4605      	mov	r5, r0
    34f6:	2728      	movs	r7, #40	; 0x28
    34f8:	fb07 6004 	mla	r0, r7, r4, r6
    34fc:	f000 f8be 	bl	367c <_do_fflush>
    3500:	3401      	adds	r4, #1
    3502:	2800      	cmp	r0, #0
    3504:	bf18      	it	ne
    3506:	f04f 35ff 	movne.w	r5, #4294967295
    350a:	2c08      	cmp	r4, #8
    350c:	d1f4      	bne.n	34f8 <fflush+0x14>
    350e:	4628      	mov	r0, r5
    3510:	bdf8      	pop	{r3, r4, r5, r6, r7, pc}
    3512:	bf00      	nop
    3514:	10002978 	.word	0x10002978

00003518 <fseek>:
    3518:	e92d 41f0 	stmdb	sp!, {r4, r5, r6, r7, r8, lr}
    351c:	4b3e      	ldr	r3, [pc, #248]	; (3618 <fseek+0x100>)
    351e:	68c6      	ldr	r6, [r0, #12]
    3520:	4604      	mov	r4, r0
    3522:	4033      	ands	r3, r6
    3524:	460d      	mov	r5, r1
    3526:	4617      	mov	r7, r2
    3528:	f8d0 8014 	ldr.w	r8, [r0, #20]
    352c:	2b00      	cmp	r3, #0
    352e:	d06c      	beq.n	360a <fseek+0xf2>
    3530:	4640      	mov	r0, r8
    3532:	f000 fcd9 	bl	3ee8 <__sys_istty>
    3536:	2800      	cmp	r0, #0
    3538:	d167      	bne.n	360a <fseek+0xf2>
    353a:	2f01      	cmp	r7, #1
    353c:	d004      	beq.n	3548 <fseek+0x30>
    353e:	2f02      	cmp	r7, #2
    3540:	d007      	beq.n	3552 <fseek+0x3a>
    3542:	2f00      	cmp	r7, #0
    3544:	d026      	beq.n	3594 <fseek+0x7c>
    3546:	e060      	b.n	360a <fseek+0xf2>
    3548:	4620      	mov	r0, r4
    354a:	f000 f867 	bl	361c <ftell>
    354e:	182d      	adds	r5, r5, r0
    3550:	e020      	b.n	3594 <fseek+0x7c>
    3552:	4640      	mov	r0, r8
    3554:	f000 fcc2 	bl	3edc <__sys_flen>
    3558:	2800      	cmp	r0, #0
    355a:	da06      	bge.n	356a <fseek+0x52>
    355c:	68e3      	ldr	r3, [r4, #12]
    355e:	2001      	movs	r0, #1
    3560:	f043 0380 	orr.w	r3, r3, #128	; 0x80
    3564:	60e3      	str	r3, [r4, #12]
    3566:	e8bd 81f0 	ldmia.w	sp!, {r4, r5, r6, r7, r8, pc}
    356a:	6a62      	ldr	r2, [r4, #36]	; 0x24
    356c:	69a1      	ldr	r1, [r4, #24]
    356e:	6897      	ldr	r7, [r2, #8]
    3570:	6823      	ldr	r3, [r4, #0]
    3572:	429f      	cmp	r7, r3
    3574:	bf2c      	ite	cs
    3576:	19cb      	addcs	r3, r1, r7
    3578:	18cb      	addcc	r3, r1, r3
    357a:	6921      	ldr	r1, [r4, #16]
    357c:	1a5b      	subs	r3, r3, r1
    357e:	68e1      	ldr	r1, [r4, #12]
    3580:	0689      	lsls	r1, r1, #26
    3582:	d503      	bpl.n	358c <fseek+0x74>
    3584:	6852      	ldr	r2, [r2, #4]
    3586:	4293      	cmp	r3, r2
    3588:	bfb8      	it	lt
    358a:	4613      	movlt	r3, r2
    358c:	4283      	cmp	r3, r0
    358e:	bfac      	ite	ge
    3590:	18ed      	addge	r5, r5, r3
    3592:	182d      	addlt	r5, r5, r0
    3594:	2d00      	cmp	r5, #0
    3596:	db3b      	blt.n	3610 <fseek+0xf8>
    3598:	04b2      	lsls	r2, r6, #18
    359a:	d505      	bpl.n	35a8 <fseek+0x90>
    359c:	6a63      	ldr	r3, [r4, #36]	; 0x24
    359e:	6822      	ldr	r2, [r4, #0]
    35a0:	6899      	ldr	r1, [r3, #8]
    35a2:	4291      	cmp	r1, r2
    35a4:	bf38      	it	cc
    35a6:	609a      	strcc	r2, [r3, #8]
    35a8:	69a3      	ldr	r3, [r4, #24]
    35aa:	429d      	cmp	r5, r3
    35ac:	db0e      	blt.n	35cc <fseek+0xb4>
    35ae:	6a60      	ldr	r0, [r4, #36]	; 0x24
    35b0:	6822      	ldr	r2, [r4, #0]
    35b2:	6881      	ldr	r1, [r0, #8]
    35b4:	4291      	cmp	r1, r2
    35b6:	bf38      	it	cc
    35b8:	4611      	movcc	r1, r2
    35ba:	6922      	ldr	r2, [r4, #16]
    35bc:	18cf      	adds	r7, r1, r3
    35be:	1abf      	subs	r7, r7, r2
    35c0:	42bd      	cmp	r5, r7
    35c2:	dc03      	bgt.n	35cc <fseek+0xb4>
    35c4:	68c0      	ldr	r0, [r0, #12]
    35c6:	181f      	adds	r7, r3, r0
    35c8:	42bd      	cmp	r5, r7
    35ca:	db07      	blt.n	35dc <fseek+0xc4>
    35cc:	2300      	movs	r3, #0
    35ce:	60a3      	str	r3, [r4, #8]
    35d0:	6063      	str	r3, [r4, #4]
    35d2:	6a63      	ldr	r3, [r4, #36]	; 0x24
    35d4:	f046 0620 	orr.w	r6, r6, #32
    35d8:	605d      	str	r5, [r3, #4]
    35da:	e00e      	b.n	35fa <fseek+0xe2>
    35dc:	1aed      	subs	r5, r5, r3
    35de:	07b3      	lsls	r3, r6, #30
    35e0:	bf44      	itt	mi
    35e2:	ebc0 0005 	rsbmi	r0, r0, r5
    35e6:	60a0      	strmi	r0, [r4, #8]
    35e8:	07f3      	lsls	r3, r6, #31
    35ea:	d502      	bpl.n	35f2 <fseek+0xda>
    35ec:	1a51      	subs	r1, r2, r1
    35ee:	1869      	adds	r1, r5, r1
    35f0:	6061      	str	r1, [r4, #4]
    35f2:	1955      	adds	r5, r2, r5
    35f4:	6025      	str	r5, [r4, #0]
    35f6:	f026 0620 	bic.w	r6, r6, #32
    35fa:	f426 2602 	bic.w	r6, r6, #532480	; 0x82000
    35fe:	f426 5682 	bic.w	r6, r6, #4160	; 0x1040
    3602:	60e6      	str	r6, [r4, #12]
    3604:	2000      	movs	r0, #0
    3606:	e8bd 81f0 	ldmia.w	sp!, {r4, r5, r6, r7, r8, pc}
    360a:	2002      	movs	r0, #2
    360c:	e8bd 81f0 	ldmia.w	sp!, {r4, r5, r6, r7, r8, pc}
    3610:	2002      	movs	r0, #2
    3612:	e8bd 81f0 	ldmia.w	sp!, {r4, r5, r6, r7, r8, pc}
    3616:	bf00      	nop
    3618:	00100003 	.word	0x00100003

0000361c <ftell>:
    361c:	68c3      	ldr	r3, [r0, #12]
    361e:	079a      	lsls	r2, r3, #30
    3620:	d105      	bne.n	362e <ftell+0x12>
    3622:	4b10      	ldr	r3, [pc, #64]	; (3664 <ftell+0x48>)
    3624:	2221      	movs	r2, #33	; 0x21
    3626:	601a      	str	r2, [r3, #0]
    3628:	f04f 30ff 	mov.w	r0, #4294967295
    362c:	4770      	bx	lr
    362e:	f413 2f00 	tst.w	r3, #524288	; 0x80000
    3632:	f003 0320 	and.w	r3, r3, #32
    3636:	d00a      	beq.n	364e <ftell+0x32>
    3638:	b113      	cbz	r3, 3640 <ftell+0x24>
    363a:	6a43      	ldr	r3, [r0, #36]	; 0x24
    363c:	6858      	ldr	r0, [r3, #4]
    363e:	e004      	b.n	364a <ftell+0x2e>
    3640:	6983      	ldr	r3, [r0, #24]
    3642:	6802      	ldr	r2, [r0, #0]
    3644:	18d2      	adds	r2, r2, r3
    3646:	6903      	ldr	r3, [r0, #16]
    3648:	1ad0      	subs	r0, r2, r3
    364a:	3801      	subs	r0, #1
    364c:	4770      	bx	lr
    364e:	b113      	cbz	r3, 3656 <ftell+0x3a>
    3650:	6a43      	ldr	r3, [r0, #36]	; 0x24
    3652:	6858      	ldr	r0, [r3, #4]
    3654:	4770      	bx	lr
    3656:	6983      	ldr	r3, [r0, #24]
    3658:	6802      	ldr	r2, [r0, #0]
    365a:	18d2      	adds	r2, r2, r3
    365c:	6903      	ldr	r3, [r0, #16]
    365e:	1ad0      	subs	r0, r2, r3
    3660:	4770      	bx	lr
    3662:	bf00      	nop
    3664:	10002970 	.word	0x10002970

00003668 <remove>:
    3668:	b510      	push	{r4, lr}
    366a:	4604      	mov	r4, r0
    366c:	f7ff fc7a 	bl	2f64 <strlen>
    3670:	4601      	mov	r1, r0
    3672:	4620      	mov	r0, r4
    3674:	e8bd 4010 	ldmia.w	sp!, {r4, lr}
    3678:	f000 bc3c 	b.w	3ef4 <__sys_remove>

0000367c <_do_fflush>:
    367c:	68c3      	ldr	r3, [r0, #12]
    367e:	b570      	push	{r4, r5, r6, lr}
    3680:	f013 0403 	ands.w	r4, r3, #3
    3684:	4605      	mov	r5, r0
    3686:	d018      	beq.n	36ba <_do_fflush+0x3e>
    3688:	069b      	lsls	r3, r3, #26
    368a:	d504      	bpl.n	3696 <_do_fflush+0x1a>
    368c:	6a43      	ldr	r3, [r0, #36]	; 0x24
    368e:	685e      	ldr	r6, [r3, #4]
    3690:	f7ff fcb8 	bl	3004 <_deferredlazyseek>
    3694:	e004      	b.n	36a0 <_do_fflush+0x24>
    3696:	6983      	ldr	r3, [r0, #24]
    3698:	6806      	ldr	r6, [r0, #0]
    369a:	18f6      	adds	r6, r6, r3
    369c:	6903      	ldr	r3, [r0, #16]
    369e:	1af6      	subs	r6, r6, r3
    36a0:	68eb      	ldr	r3, [r5, #12]
    36a2:	4628      	mov	r0, r5
    36a4:	f423 5340 	bic.w	r3, r3, #12288	; 0x3000
    36a8:	60eb      	str	r3, [r5, #12]
    36aa:	f7ff fdaa 	bl	3202 <_fflush>
    36ae:	4631      	mov	r1, r6
    36b0:	4604      	mov	r4, r0
    36b2:	2200      	movs	r2, #0
    36b4:	4628      	mov	r0, r5
    36b6:	f7ff ff2f 	bl	3518 <fseek>
    36ba:	4620      	mov	r0, r4
    36bc:	bd70      	pop	{r4, r5, r6, pc}
	...

000036c0 <__aeabi_dmul>:
    36c0:	e92d 0ff0 	stmdb	sp!, {r4, r5, r6, r7, r8, r9, sl, fp}
    36c4:	4614      	mov	r4, r2
    36c6:	4606      	mov	r6, r0
    36c8:	460f      	mov	r7, r1
    36ca:	460a      	mov	r2, r1
    36cc:	f3c1 510a 	ubfx	r1, r1, #20, #11
    36d0:	46a0      	mov	r8, r4
    36d2:	4620      	mov	r0, r4
    36d4:	b084      	sub	sp, #16
    36d6:	461d      	mov	r5, r3
    36d8:	4699      	mov	r9, r3
    36da:	4634      	mov	r4, r6
    36dc:	2900      	cmp	r1, #0
    36de:	d059      	beq.n	3794 <__aeabi_dmul+0xd4>
    36e0:	f240 75ff 	movw	r5, #2047	; 0x7ff
    36e4:	42a9      	cmp	r1, r5
    36e6:	d055      	beq.n	3794 <__aeabi_dmul+0xd4>
    36e8:	f3c3 560a 	ubfx	r6, r3, #20, #11
    36ec:	2e00      	cmp	r6, #0
    36ee:	d051      	beq.n	3794 <__aeabi_dmul+0xd4>
    36f0:	42ae      	cmp	r6, r5
    36f2:	d04f      	beq.n	3794 <__aeabi_dmul+0xd4>
    36f4:	02c7      	lsls	r7, r0, #11
    36f6:	fba7 8904 	umull	r8, r9, r7, r4
    36fa:	f022 457f 	bic.w	r5, r2, #4278190080	; 0xff000000
    36fe:	f425 0570 	bic.w	r5, r5, #15728640	; 0xf00000
    3702:	f445 1c80 	orr.w	ip, r5, #1048576	; 0x100000
    3706:	fbac ab07 	umull	sl, fp, ip, r7
    370a:	e9cd 8902 	strd	r8, r9, [sp, #8]
    370e:	9d03      	ldr	r5, [sp, #12]
    3710:	0d40      	lsrs	r0, r0, #21
    3712:	ea40 20c3 	orr.w	r0, r0, r3, lsl #11
    3716:	eb15 080a 	adds.w	r8, r5, sl
    371a:	f04f 0900 	mov.w	r9, #0
    371e:	f149 0900 	adc.w	r9, r9, #0
    3722:	f040 4000 	orr.w	r0, r0, #2147483648	; 0x80000000
    3726:	fbe4 8900 	umlal	r8, r9, r4, r0
    372a:	2500      	movs	r5, #0
    372c:	f8cd 9000 	str.w	r9, [sp]
    3730:	9501      	str	r5, [sp, #4]
    3732:	e9dd 4500 	ldrd	r4, r5, [sp]
    3736:	eb14 040b 	adds.w	r4, r4, fp
    373a:	f145 0500 	adc.w	r5, r5, #0
    373e:	fbec 4500 	umlal	r4, r5, ip, r0
    3742:	1876      	adds	r6, r6, r1
    3744:	9902      	ldr	r1, [sp, #8]
    3746:	4053      	eors	r3, r2
    3748:	f5b5 1f80 	cmp.w	r5, #1048576	; 0x100000
    374c:	f003 4300 	and.w	r3, r3, #2147483648	; 0x80000000
    3750:	ea48 0291 	orr.w	r2, r8, r1, lsr #2
    3754:	d247      	bcs.n	37e6 <__aeabi_dmul+0x126>
    3756:	0fd1      	lsrs	r1, r2, #31
    3758:	1920      	adds	r0, r4, r4
    375a:	eb45 0505 	adc.w	r5, r5, r5
    375e:	f5a6 6680 	sub.w	r6, r6, #1024	; 0x400
    3762:	ea40 0401 	orr.w	r4, r0, r1
    3766:	0052      	lsls	r2, r2, #1
    3768:	0fd7      	lsrs	r7, r2, #31
    376a:	19e0      	adds	r0, r4, r7
    376c:	f145 0100 	adc.w	r1, r5, #0
    3770:	f1b2 4f00 	cmp.w	r2, #2147483648	; 0x80000000
    3774:	f240 72fd 	movw	r2, #2045	; 0x7fd
    3778:	bf08      	it	eq
    377a:	f020 0001 	biceq.w	r0, r0, #1
    377e:	4296      	cmp	r6, r2
    3780:	d935      	bls.n	37ee <__aeabi_dmul+0x12e>
    3782:	2e00      	cmp	r6, #0
    3784:	bfa4      	itt	ge
    3786:	f043 43fe 	orrge.w	r3, r3, #2130706432	; 0x7f000000
    378a:	f443 0370 	orrge.w	r3, r3, #15728640	; 0xf00000
    378e:	4619      	mov	r1, r3
    3790:	2000      	movs	r0, #0
    3792:	e01f      	b.n	37d4 <__aeabi_dmul+0x114>
    3794:	ea83 0402 	eor.w	r4, r3, r2
    3798:	f46f 1100 	mvn.w	r1, #2097152	; 0x200000
    379c:	0052      	lsls	r2, r2, #1
    379e:	428a      	cmp	r2, r1
    37a0:	f004 4400 	and.w	r4, r4, #2147483648	; 0x80000000
    37a4:	d80f      	bhi.n	37c6 <__aeabi_dmul+0x106>
    37a6:	005b      	lsls	r3, r3, #1
    37a8:	428b      	cmp	r3, r1
    37aa:	d917      	bls.n	37dc <__aeabi_dmul+0x11c>
    37ac:	f513 1f00 	cmn.w	r3, #2097152	; 0x200000
    37b0:	d80c      	bhi.n	37cc <__aeabi_dmul+0x10c>
    37b2:	0d52      	lsrs	r2, r2, #21
    37b4:	d00a      	beq.n	37cc <__aeabi_dmul+0x10c>
    37b6:	0d5b      	lsrs	r3, r3, #21
    37b8:	d008      	beq.n	37cc <__aeabi_dmul+0x10c>
    37ba:	f044 44fe 	orr.w	r4, r4, #2130706432	; 0x7f000000
    37be:	f444 0170 	orr.w	r1, r4, #15728640	; 0xf00000
    37c2:	2000      	movs	r0, #0
    37c4:	e006      	b.n	37d4 <__aeabi_dmul+0x114>
    37c6:	f512 1f00 	cmn.w	r2, #2097152	; 0x200000
    37ca:	d00a      	beq.n	37e2 <__aeabi_dmul+0x122>
    37cc:	2100      	movs	r1, #0
    37ce:	2000      	movs	r0, #0
    37d0:	f6c7 71f8 	movt	r1, #32760	; 0x7ff8
    37d4:	b004      	add	sp, #16
    37d6:	e8bd 0ff0 	ldmia.w	sp!, {r4, r5, r6, r7, r8, r9, sl, fp}
    37da:	4770      	bx	lr
    37dc:	4621      	mov	r1, r4
    37de:	2000      	movs	r0, #0
    37e0:	e7f8      	b.n	37d4 <__aeabi_dmul+0x114>
    37e2:	005b      	lsls	r3, r3, #1
    37e4:	e7e2      	b.n	37ac <__aeabi_dmul+0xec>
    37e6:	f5a6 767e 	sub.w	r6, r6, #1016	; 0x3f8
    37ea:	3e07      	subs	r6, #7
    37ec:	e7bc      	b.n	3768 <__aeabi_dmul+0xa8>
    37ee:	4319      	orrs	r1, r3
    37f0:	eb01 5306 	add.w	r3, r1, r6, lsl #20
    37f4:	4619      	mov	r1, r3
    37f6:	e7ed      	b.n	37d4 <__aeabi_dmul+0x114>

000037f8 <__aeabi_ddiv>:
    37f8:	e92d 0ff0 	stmdb	sp!, {r4, r5, r6, r7, r8, r9, sl, fp}
    37fc:	461d      	mov	r5, r3
    37fe:	462f      	mov	r7, r5
    3800:	4614      	mov	r4, r2
    3802:	f3c1 520a 	ubfx	r2, r1, #20, #11
    3806:	460b      	mov	r3, r1
    3808:	4605      	mov	r5, r0
    380a:	463e      	mov	r6, r7
    380c:	2a00      	cmp	r2, #0
    380e:	d03c      	beq.n	388a <__aeabi_ddiv+0x92>
    3810:	f240 71ff 	movw	r1, #2047	; 0x7ff
    3814:	428a      	cmp	r2, r1
    3816:	d038      	beq.n	388a <__aeabi_ddiv+0x92>
    3818:	f3c7 5c0a 	ubfx	ip, r7, #20, #11
    381c:	f1bc 0f00 	cmp.w	ip, #0
    3820:	d033      	beq.n	388a <__aeabi_ddiv+0x92>
    3822:	458c      	cmp	ip, r1
    3824:	d031      	beq.n	388a <__aeabi_ddiv+0x92>
    3826:	ea4f 5150 	mov.w	r1, r0, lsr #21
    382a:	0d60      	lsrs	r0, r4, #21
    382c:	ea41 29c3 	orr.w	r9, r1, r3, lsl #11
    3830:	ea40 27c7 	orr.w	r7, r0, r7, lsl #11
    3834:	ea4f 2ac4 	mov.w	sl, r4, lsl #11
    3838:	02e8      	lsls	r0, r5, #11
    383a:	f049 4100 	orr.w	r1, r9, #2147483648	; 0x80000000
    383e:	f047 4b00 	orr.w	fp, r7, #2147483648	; 0x80000000
    3842:	ebcc 0c02 	rsb	ip, ip, r2
    3846:	405e      	eors	r6, r3
    3848:	4550      	cmp	r0, sl
    384a:	eb71 030b 	sbcs.w	r3, r1, fp
    384e:	f50c 7c7e 	add.w	ip, ip, #1016	; 0x3f8
    3852:	d26a      	bcs.n	392a <__aeabi_ddiv+0x132>
    3854:	f10c 0c05 	add.w	ip, ip, #5
    3858:	ea5f 035b 	movs.w	r3, fp, lsr #1
    385c:	ea4f 023a 	mov.w	r2, sl, rrx
    3860:	2534      	movs	r5, #52	; 0x34
    3862:	2400      	movs	r4, #0
    3864:	0064      	lsls	r4, r4, #1
    3866:	4290      	cmp	r0, r2
    3868:	eb71 0703 	sbcs.w	r7, r1, r3
    386c:	d304      	bcc.n	3878 <__aeabi_ddiv+0x80>
    386e:	1a80      	subs	r0, r0, r2
    3870:	eb61 0103 	sbc.w	r1, r1, r3
    3874:	f044 0401 	orr.w	r4, r4, #1
    3878:	1800      	adds	r0, r0, r0
    387a:	eb41 0101 	adc.w	r1, r1, r1
    387e:	2d20      	cmp	r5, #32
    3880:	d04d      	beq.n	391e <__aeabi_ddiv+0x126>
    3882:	2d00      	cmp	r5, #0
    3884:	d02e      	beq.n	38e4 <__aeabi_ddiv+0xec>
    3886:	3d01      	subs	r5, #1
    3888:	e7ec      	b.n	3864 <__aeabi_ddiv+0x6c>
    388a:	005a      	lsls	r2, r3, #1
    388c:	f512 1f00 	cmn.w	r2, #2097152	; 0x200000
    3890:	d821      	bhi.n	38d6 <__aeabi_ddiv+0xde>
    3892:	0071      	lsls	r1, r6, #1
    3894:	f511 1f00 	cmn.w	r1, #2097152	; 0x200000
    3898:	d81d      	bhi.n	38d6 <__aeabi_ddiv+0xde>
    389a:	ea46 0403 	orr.w	r4, r6, r3
    389e:	f3c4 500a 	ubfx	r0, r4, #20, #11
    38a2:	0544      	lsls	r4, r0, #21
    38a4:	2800      	cmp	r0, #0
    38a6:	d035      	beq.n	3914 <__aeabi_ddiv+0x11c>
    38a8:	ea86 0c03 	eor.w	ip, r6, r3
    38ac:	0d50      	lsrs	r0, r2, #21
    38ae:	f00c 4300 	and.w	r3, ip, #2147483648	; 0x80000000
    38b2:	0544      	lsls	r4, r0, #21
    38b4:	2800      	cmp	r0, #0
    38b6:	d035      	beq.n	3924 <__aeabi_ddiv+0x12c>
    38b8:	0d48      	lsrs	r0, r1, #21
    38ba:	0544      	lsls	r4, r0, #21
    38bc:	2800      	cmp	r0, #0
    38be:	d046      	beq.n	394e <__aeabi_ddiv+0x156>
    38c0:	f511 1f00 	cmn.w	r1, #2097152	; 0x200000
    38c4:	d13d      	bne.n	3942 <__aeabi_ddiv+0x14a>
    38c6:	2000      	movs	r0, #0
    38c8:	428a      	cmp	r2, r1
    38ca:	f04f 0100 	mov.w	r1, #0
    38ce:	d144      	bne.n	395a <__aeabi_ddiv+0x162>
    38d0:	f6c7 71f8 	movt	r1, #32760	; 0x7ff8
    38d4:	e003      	b.n	38de <__aeabi_ddiv+0xe6>
    38d6:	2100      	movs	r1, #0
    38d8:	2000      	movs	r0, #0
    38da:	f6c7 71f8 	movt	r1, #32760	; 0x7ff8
    38de:	e8bd 0ff0 	ldmia.w	sp!, {r4, r5, r6, r7, r8, r9, sl, fp}
    38e2:	4770      	bx	lr
    38e4:	4290      	cmp	r0, r2
    38e6:	eb71 0503 	sbcs.w	r5, r1, r3
    38ea:	d303      	bcc.n	38f4 <__aeabi_ddiv+0xfc>
    38ec:	3401      	adds	r4, #1
    38ee:	bf08      	it	eq
    38f0:	f108 0801 	addeq.w	r8, r8, #1
    38f4:	f240 73fd 	movw	r3, #2045	; 0x7fd
    38f8:	459c      	cmp	ip, r3
    38fa:	f006 4600 	and.w	r6, r6, #2147483648	; 0x80000000
    38fe:	d91a      	bls.n	3936 <__aeabi_ddiv+0x13e>
    3900:	f1bc 0f00 	cmp.w	ip, #0
    3904:	bfa4      	itt	ge
    3906:	f046 46fe 	orrge.w	r6, r6, #2130706432	; 0x7f000000
    390a:	f446 0670 	orrge.w	r6, r6, #15728640	; 0xf00000
    390e:	4631      	mov	r1, r6
    3910:	2000      	movs	r0, #0
    3912:	e7e4      	b.n	38de <__aeabi_ddiv+0xe6>
    3914:	4621      	mov	r1, r4
    3916:	f6c7 71f8 	movt	r1, #32760	; 0x7ff8
    391a:	4620      	mov	r0, r4
    391c:	e7df      	b.n	38de <__aeabi_ddiv+0xe6>
    391e:	46a0      	mov	r8, r4
    3920:	3d01      	subs	r5, #1
    3922:	e79f      	b.n	3864 <__aeabi_ddiv+0x6c>
    3924:	4619      	mov	r1, r3
    3926:	4620      	mov	r0, r4
    3928:	e7d9      	b.n	38de <__aeabi_ddiv+0xe6>
    392a:	0849      	lsrs	r1, r1, #1
    392c:	ea4f 0030 	mov.w	r0, r0, rrx
    3930:	f10c 0c06 	add.w	ip, ip, #6
    3934:	e790      	b.n	3858 <__aeabi_ddiv+0x60>
    3936:	eb06 560c 	add.w	r6, r6, ip, lsl #20
    393a:	eb06 0108 	add.w	r1, r6, r8
    393e:	4620      	mov	r0, r4
    3940:	e7cd      	b.n	38de <__aeabi_ddiv+0xe6>
    3942:	f043 41fe 	orr.w	r1, r3, #2130706432	; 0x7f000000
    3946:	f441 0170 	orr.w	r1, r1, #15728640	; 0xf00000
    394a:	2000      	movs	r0, #0
    394c:	e7c7      	b.n	38de <__aeabi_ddiv+0xe6>
    394e:	f043 42fe 	orr.w	r2, r3, #2130706432	; 0x7f000000
    3952:	f442 0170 	orr.w	r1, r2, #15728640	; 0xf00000
    3956:	4620      	mov	r0, r4
    3958:	e7c1      	b.n	38de <__aeabi_ddiv+0xe6>
    395a:	4619      	mov	r1, r3
    395c:	2000      	movs	r0, #0
    395e:	e7be      	b.n	38de <__aeabi_ddiv+0xe6>

00003960 <__aeabi_dsub>:
    3960:	e92d 0ff0 	stmdb	sp!, {r4, r5, r6, r7, r8, r9, sl, fp}
    3964:	461d      	mov	r5, r3
    3966:	469b      	mov	fp, r3
    3968:	460b      	mov	r3, r1
    396a:	4689      	mov	r9, r1
    396c:	4692      	mov	sl, r2
    396e:	ea95 0403 	eors.w	r4, r5, r3
    3972:	4680      	mov	r8, r0
    3974:	4606      	mov	r6, r0
    3976:	4602      	mov	r2, r0
    3978:	464f      	mov	r7, r9
    397a:	4629      	mov	r1, r5
    397c:	4650      	mov	r0, sl
    397e:	f100 80c8 	bmi.w	3b12 <__aeabi_dsub+0x1b2>
    3982:	42ab      	cmp	r3, r5
    3984:	d262      	bcs.n	3a4c <__aeabi_dsub+0xec>
    3986:	4042      	eors	r2, r0
    3988:	f104 4400 	add.w	r4, r4, #2147483648	; 0x80000000
    398c:	4050      	eors	r0, r2
    398e:	4063      	eors	r3, r4
    3990:	4061      	eors	r1, r4
    3992:	4042      	eors	r2, r0
    3994:	0d1c      	lsrs	r4, r3, #20
    3996:	f424 6600 	bic.w	r6, r4, #2048	; 0x800
    399a:	f240 77ff 	movw	r7, #2047	; 0x7ff
    399e:	42be      	cmp	r6, r7
    39a0:	eba4 5511 	sub.w	r5, r4, r1, lsr #20
    39a4:	d05f      	beq.n	3a66 <__aeabi_dsub+0x106>
    39a6:	42b5      	cmp	r5, r6
    39a8:	f000 8097 	beq.w	3ada <__aeabi_dsub+0x17a>
    39ac:	f023 4c7f 	bic.w	ip, r3, #4278190080	; 0xff000000
    39b0:	f021 417f 	bic.w	r1, r1, #4278190080	; 0xff000000
    39b4:	f42c 0370 	bic.w	r3, ip, #15728640	; 0xf00000
    39b8:	2d1f      	cmp	r5, #31
    39ba:	f421 0c70 	bic.w	ip, r1, #15728640	; 0xf00000
    39be:	f443 1380 	orr.w	r3, r3, #1048576	; 0x100000
    39c2:	f44c 1180 	orr.w	r1, ip, #1048576	; 0x100000
    39c6:	d858      	bhi.n	3a7a <__aeabi_dsub+0x11a>
    39c8:	f1c5 0620 	rsb	r6, r5, #32
    39cc:	fa30 f705 	lsrs.w	r7, r0, r5
    39d0:	fa01 fc06 	lsl.w	ip, r1, r6
    39d4:	fa31 f505 	lsrs.w	r5, r1, r5
    39d8:	ea4c 0707 	orr.w	r7, ip, r7
    39dc:	1bd7      	subs	r7, r2, r7
    39de:	42ba      	cmp	r2, r7
    39e0:	ebc5 0303 	rsb	r3, r5, r3
    39e4:	bf38      	it	cc
    39e6:	3b01      	subcc	r3, #1
    39e8:	fa10 f106 	lsls.w	r1, r0, r6
    39ec:	d17e      	bne.n	3aec <__aeabi_dsub+0x18c>
    39ee:	463a      	mov	r2, r7
    39f0:	f413 1fc0 	tst.w	r3, #1572864	; 0x180000
    39f4:	d15b      	bne.n	3aae <__aeabi_dsub+0x14e>
    39f6:	0fd0      	lsrs	r0, r2, #31
    39f8:	0fcd      	lsrs	r5, r1, #31
    39fa:	ea40 0343 	orr.w	r3, r0, r3, lsl #1
    39fe:	ea45 0242 	orr.w	r2, r5, r2, lsl #1
    3a02:	ea52 0503 	orrs.w	r5, r2, r3
    3a06:	d06e      	beq.n	3ae6 <__aeabi_dsub+0x186>
    3a08:	1ea5      	subs	r5, r4, #2
    3a0a:	0b59      	lsrs	r1, r3, #13
    3a0c:	d106      	bne.n	3a1c <__aeabi_dsub+0xbc>
    3a0e:	0e11      	lsrs	r1, r2, #24
    3a10:	ea41 2303 	orr.w	r3, r1, r3, lsl #8
    3a14:	0212      	lsls	r2, r2, #8
    3a16:	3d08      	subs	r5, #8
    3a18:	0b59      	lsrs	r1, r3, #13
    3a1a:	d0f8      	beq.n	3a0e <__aeabi_dsub+0xae>
    3a1c:	0c59      	lsrs	r1, r3, #17
    3a1e:	d104      	bne.n	3a2a <__aeabi_dsub+0xca>
    3a20:	0f10      	lsrs	r0, r2, #28
    3a22:	ea40 1303 	orr.w	r3, r0, r3, lsl #4
    3a26:	0112      	lsls	r2, r2, #4
    3a28:	3d04      	subs	r5, #4
    3a2a:	0cd9      	lsrs	r1, r3, #19
    3a2c:	d104      	bne.n	3a38 <__aeabi_dsub+0xd8>
    3a2e:	0f91      	lsrs	r1, r2, #30
    3a30:	ea41 0383 	orr.w	r3, r1, r3, lsl #2
    3a34:	0092      	lsls	r2, r2, #2
    3a36:	3d02      	subs	r5, #2
    3a38:	0d19      	lsrs	r1, r3, #20
    3a3a:	d07f      	beq.n	3b3c <__aeabi_dsub+0x1dc>
    3a3c:	0ae4      	lsrs	r4, r4, #11
    3a3e:	ebb4 2fd5 	cmp.w	r4, r5, lsr #11
    3a42:	f000 8083 	beq.w	3b4c <__aeabi_dsub+0x1ec>
    3a46:	07e1      	lsls	r1, r4, #31
    3a48:	2000      	movs	r0, #0
    3a4a:	e043      	b.n	3ad4 <__aeabi_dsub+0x174>
    3a4c:	45d0      	cmp	r8, sl
    3a4e:	d8a1      	bhi.n	3994 <__aeabi_dsub+0x34>
    3a50:	42ab      	cmp	r3, r5
    3a52:	d098      	beq.n	3986 <__aeabi_dsub+0x26>
    3a54:	0d1c      	lsrs	r4, r3, #20
    3a56:	f424 6600 	bic.w	r6, r4, #2048	; 0x800
    3a5a:	f240 77ff 	movw	r7, #2047	; 0x7ff
    3a5e:	42be      	cmp	r6, r7
    3a60:	eba4 5511 	sub.w	r5, r4, r1, lsr #20
    3a64:	d19f      	bne.n	39a6 <__aeabi_dsub+0x46>
    3a66:	2000      	movs	r0, #0
    3a68:	0319      	lsls	r1, r3, #12
    3a6a:	f04f 0100 	mov.w	r1, #0
    3a6e:	d14d      	bne.n	3b0c <__aeabi_dsub+0x1ac>
    3a70:	2d00      	cmp	r5, #0
    3a72:	d05e      	beq.n	3b32 <__aeabi_dsub+0x1d2>
    3a74:	4619      	mov	r1, r3
    3a76:	4610      	mov	r0, r2
    3a78:	e02c      	b.n	3ad4 <__aeabi_dsub+0x174>
    3a7a:	2d35      	cmp	r5, #53	; 0x35
    3a7c:	d817      	bhi.n	3aae <__aeabi_dsub+0x14e>
    3a7e:	f1a5 0720 	sub.w	r7, r5, #32
    3a82:	fa31 f607 	lsrs.w	r6, r1, r7
    3a86:	1b96      	subs	r6, r2, r6
    3a88:	42b2      	cmp	r2, r6
    3a8a:	f1c5 0540 	rsb	r5, r5, #64	; 0x40
    3a8e:	bf38      	it	cc
    3a90:	3b01      	subcc	r3, #1
    3a92:	fa11 f205 	lsls.w	r2, r1, r5
    3a96:	fa30 f707 	lsrs.w	r7, r0, r7
    3a9a:	0600      	lsls	r0, r0, #24
    3a9c:	ea47 0102 	orr.w	r1, r7, r2
    3aa0:	d043      	beq.n	3b2a <__aeabi_dsub+0x1ca>
    3aa2:	f041 01ff 	orr.w	r1, r1, #255	; 0xff
    3aa6:	4249      	negs	r1, r1
    3aa8:	1e72      	subs	r2, r6, #1
    3aaa:	2e00      	cmp	r6, #0
    3aac:	d04c      	beq.n	3b48 <__aeabi_dsub+0x1e8>
    3aae:	02d8      	lsls	r0, r3, #11
    3ab0:	d409      	bmi.n	3ac6 <__aeabi_dsub+0x166>
    3ab2:	3c01      	subs	r4, #1
    3ab4:	0565      	lsls	r5, r4, #21
    3ab6:	d035      	beq.n	3b24 <__aeabi_dsub+0x1c4>
    3ab8:	0fd5      	lsrs	r5, r2, #31
    3aba:	0fc8      	lsrs	r0, r1, #31
    3abc:	ea45 0343 	orr.w	r3, r5, r3, lsl #1
    3ac0:	ea40 0242 	orr.w	r2, r0, r2, lsl #1
    3ac4:	0049      	lsls	r1, r1, #1
    3ac6:	2900      	cmp	r1, #0
    3ac8:	f423 1380 	bic.w	r3, r3, #1048576	; 0x100000
    3acc:	db15      	blt.n	3afa <__aeabi_dsub+0x19a>
    3ace:	eb03 5104 	add.w	r1, r3, r4, lsl #20
    3ad2:	4610      	mov	r0, r2
    3ad4:	e8bd 0ff0 	ldmia.w	sp!, {r4, r5, r6, r7, r8, r9, sl, fp}
    3ad8:	4770      	bx	lr
    3ada:	f240 7cfe 	movw	ip, #2046	; 0x7fe
    3ade:	4565      	cmp	r5, ip
    3ae0:	d8c1      	bhi.n	3a66 <__aeabi_dsub+0x106>
    3ae2:	2d00      	cmp	r5, #0
    3ae4:	d1c6      	bne.n	3a74 <__aeabi_dsub+0x114>
    3ae6:	4629      	mov	r1, r5
    3ae8:	4628      	mov	r0, r5
    3aea:	e7f3      	b.n	3ad4 <__aeabi_dsub+0x174>
    3aec:	4249      	negs	r1, r1
    3aee:	1e7a      	subs	r2, r7, #1
    3af0:	2f00      	cmp	r7, #0
    3af2:	f47f af7d 	bne.w	39f0 <__aeabi_dsub+0x90>
    3af6:	3b01      	subs	r3, #1
    3af8:	e77a      	b.n	39f0 <__aeabi_dsub+0x90>
    3afa:	3201      	adds	r2, #1
    3afc:	bf08      	it	eq
    3afe:	3301      	addeq	r3, #1
    3b00:	f1b1 4f00 	cmp.w	r1, #2147483648	; 0x80000000
    3b04:	bf08      	it	eq
    3b06:	f022 0201 	biceq.w	r2, r2, #1
    3b0a:	e7e0      	b.n	3ace <__aeabi_dsub+0x16e>
    3b0c:	f6c7 71f8 	movt	r1, #32760	; 0x7ff8
    3b10:	e7e0      	b.n	3ad4 <__aeabi_dsub+0x174>
    3b12:	f105 4300 	add.w	r3, r5, #2147483648	; 0x80000000
    3b16:	4652      	mov	r2, sl
    3b18:	4640      	mov	r0, r8
    3b1a:	4649      	mov	r1, r9
    3b1c:	e8bd 0ff0 	ldmia.w	sp!, {r4, r5, r6, r7, r8, r9, sl, fp}
    3b20:	f000 b818 	b.w	3b54 <__aeabi_dadd>
    3b24:	0521      	lsls	r1, r4, #20
    3b26:	4628      	mov	r0, r5
    3b28:	e7d4      	b.n	3ad4 <__aeabi_dsub+0x174>
    3b2a:	2900      	cmp	r1, #0
    3b2c:	d1bb      	bne.n	3aa6 <__aeabi_dsub+0x146>
    3b2e:	4632      	mov	r2, r6
    3b30:	e7bd      	b.n	3aae <__aeabi_dsub+0x14e>
    3b32:	4629      	mov	r1, r5
    3b34:	f6c7 71f8 	movt	r1, #32760	; 0x7ff8
    3b38:	4628      	mov	r0, r5
    3b3a:	e7cb      	b.n	3ad4 <__aeabi_dsub+0x174>
    3b3c:	0fd0      	lsrs	r0, r2, #31
    3b3e:	ea40 0343 	orr.w	r3, r0, r3, lsl #1
    3b42:	0052      	lsls	r2, r2, #1
    3b44:	3d01      	subs	r5, #1
    3b46:	e779      	b.n	3a3c <__aeabi_dsub+0xdc>
    3b48:	3b01      	subs	r3, #1
    3b4a:	e7b0      	b.n	3aae <__aeabi_dsub+0x14e>
    3b4c:	eb03 5105 	add.w	r1, r3, r5, lsl #20
    3b50:	4610      	mov	r0, r2
    3b52:	e7bf      	b.n	3ad4 <__aeabi_dsub+0x174>

00003b54 <__aeabi_dadd>:
    3b54:	e92d 0ff0 	stmdb	sp!, {r4, r5, r6, r7, r8, r9, sl, fp}
    3b58:	461d      	mov	r5, r3
    3b5a:	469b      	mov	fp, r3
    3b5c:	460b      	mov	r3, r1
    3b5e:	4689      	mov	r9, r1
    3b60:	4692      	mov	sl, r2
    3b62:	ea95 0403 	eors.w	r4, r5, r3
    3b66:	4680      	mov	r8, r0
    3b68:	4606      	mov	r6, r0
    3b6a:	4602      	mov	r2, r0
    3b6c:	464f      	mov	r7, r9
    3b6e:	4629      	mov	r1, r5
    3b70:	4650      	mov	r0, sl
    3b72:	f100 8090 	bmi.w	3c96 <__aeabi_dadd+0x142>
    3b76:	42ab      	cmp	r3, r5
    3b78:	d33d      	bcc.n	3bf6 <__aeabi_dadd+0xa2>
    3b7a:	0d1d      	lsrs	r5, r3, #20
    3b7c:	f425 6600 	bic.w	r6, r5, #2048	; 0x800
    3b80:	f240 74ff 	movw	r4, #2047	; 0x7ff
    3b84:	42a6      	cmp	r6, r4
    3b86:	d046      	beq.n	3c16 <__aeabi_dadd+0xc2>
    3b88:	eba5 5411 	sub.w	r4, r5, r1, lsr #20
    3b8c:	42b4      	cmp	r4, r6
    3b8e:	d068      	beq.n	3c62 <__aeabi_dadd+0x10e>
    3b90:	f023 4c7f 	bic.w	ip, r3, #4278190080	; 0xff000000
    3b94:	f021 417f 	bic.w	r1, r1, #4278190080	; 0xff000000
    3b98:	f42c 0370 	bic.w	r3, ip, #15728640	; 0xf00000
    3b9c:	2c1f      	cmp	r4, #31
    3b9e:	f421 0c70 	bic.w	ip, r1, #15728640	; 0xf00000
    3ba2:	f443 1380 	orr.w	r3, r3, #1048576	; 0x100000
    3ba6:	f44c 1180 	orr.w	r1, ip, #1048576	; 0x100000
    3baa:	d845      	bhi.n	3c38 <__aeabi_dadd+0xe4>
    3bac:	f1c4 0620 	rsb	r6, r4, #32
    3bb0:	fa30 f704 	lsrs.w	r7, r0, r4
    3bb4:	fa01 fc06 	lsl.w	ip, r1, r6
    3bb8:	fa31 f404 	lsrs.w	r4, r1, r4
    3bbc:	ea4c 0707 	orr.w	r7, ip, r7
    3bc0:	19d2      	adds	r2, r2, r7
    3bc2:	4423      	add	r3, r4
    3bc4:	bf28      	it	cs
    3bc6:	3301      	addcs	r3, #1
    3bc8:	fa10 f106 	lsls.w	r1, r0, r6
    3bcc:	0298      	lsls	r0, r3, #10
    3bce:	d52a      	bpl.n	3c26 <__aeabi_dadd+0xd2>
    3bd0:	3201      	adds	r2, #1
    3bd2:	bf08      	it	eq
    3bd4:	3301      	addeq	r3, #1
    3bd6:	b909      	cbnz	r1, 3bdc <__aeabi_dadd+0x88>
    3bd8:	f022 0202 	bic.w	r2, r2, #2
    3bdc:	052c      	lsls	r4, r5, #20
    3bde:	eb04 0453 	add.w	r4, r4, r3, lsr #1
    3be2:	f46f 1000 	mvn.w	r0, #2097152	; 0x200000
    3be6:	ebb0 0f44 	cmp.w	r0, r4, lsl #1
    3bea:	d344      	bcc.n	3c76 <__aeabi_dadd+0x122>
    3bec:	07db      	lsls	r3, r3, #31
    3bee:	4621      	mov	r1, r4
    3bf0:	ea43 0052 	orr.w	r0, r3, r2, lsr #1
    3bf4:	e01d      	b.n	3c32 <__aeabi_dadd+0xde>
    3bf6:	4063      	eors	r3, r4
    3bf8:	ea85 0104 	eor.w	r1, r5, r4
    3bfc:	0d1d      	lsrs	r5, r3, #20
    3bfe:	ea8a 0208 	eor.w	r2, sl, r8
    3c02:	f425 6600 	bic.w	r6, r5, #2048	; 0x800
    3c06:	f240 74ff 	movw	r4, #2047	; 0x7ff
    3c0a:	ea8a 0002 	eor.w	r0, sl, r2
    3c0e:	42a6      	cmp	r6, r4
    3c10:	ea80 0202 	eor.w	r2, r0, r2
    3c14:	d1b8      	bne.n	3b88 <__aeabi_dadd+0x34>
    3c16:	2000      	movs	r0, #0
    3c18:	0319      	lsls	r1, r3, #12
    3c1a:	f04f 0100 	mov.w	r1, #0
    3c1e:	d137      	bne.n	3c90 <__aeabi_dadd+0x13c>
    3c20:	4619      	mov	r1, r3
    3c22:	4610      	mov	r0, r2
    3c24:	e005      	b.n	3c32 <__aeabi_dadd+0xde>
    3c26:	3d01      	subs	r5, #1
    3c28:	2900      	cmp	r1, #0
    3c2a:	db28      	blt.n	3c7e <__aeabi_dadd+0x12a>
    3c2c:	eb03 5105 	add.w	r1, r3, r5, lsl #20
    3c30:	4610      	mov	r0, r2
    3c32:	e8bd 0ff0 	ldmia.w	sp!, {r4, r5, r6, r7, r8, r9, sl, fp}
    3c36:	4770      	bx	lr
    3c38:	2c35      	cmp	r4, #53	; 0x35
    3c3a:	d8c7      	bhi.n	3bcc <__aeabi_dadd+0x78>
    3c3c:	f1a4 0620 	sub.w	r6, r4, #32
    3c40:	fa31 f706 	lsrs.w	r7, r1, r6
    3c44:	f1c4 0440 	rsb	r4, r4, #64	; 0x40
    3c48:	19d2      	adds	r2, r2, r7
    3c4a:	bf28      	it	cs
    3c4c:	3301      	addcs	r3, #1
    3c4e:	40a1      	lsls	r1, r4
    3c50:	fa30 f606 	lsrs.w	r6, r0, r6
    3c54:	0600      	lsls	r0, r0, #24
    3c56:	ea46 0101 	orr.w	r1, r6, r1
    3c5a:	bf18      	it	ne
    3c5c:	f041 01ff 	orrne.w	r1, r1, #255	; 0xff
    3c60:	e7b4      	b.n	3bcc <__aeabi_dadd+0x78>
    3c62:	f240 7cfe 	movw	ip, #2046	; 0x7fe
    3c66:	4564      	cmp	r4, ip
    3c68:	d8d5      	bhi.n	3c16 <__aeabi_dadd+0xc2>
    3c6a:	2c00      	cmp	r4, #0
    3c6c:	d1d8      	bne.n	3c20 <__aeabi_dadd+0xcc>
    3c6e:	f003 4100 	and.w	r1, r3, #2147483648	; 0x80000000
    3c72:	4620      	mov	r0, r4
    3c74:	e7dd      	b.n	3c32 <__aeabi_dadd+0xde>
    3c76:	3501      	adds	r5, #1
    3c78:	0529      	lsls	r1, r5, #20
    3c7a:	2000      	movs	r0, #0
    3c7c:	e7d9      	b.n	3c32 <__aeabi_dadd+0xde>
    3c7e:	3201      	adds	r2, #1
    3c80:	bf08      	it	eq
    3c82:	3301      	addeq	r3, #1
    3c84:	f1b1 4f00 	cmp.w	r1, #2147483648	; 0x80000000
    3c88:	bf08      	it	eq
    3c8a:	f022 0201 	biceq.w	r2, r2, #1
    3c8e:	e7cd      	b.n	3c2c <__aeabi_dadd+0xd8>
